---
triple:          'arm64-apple-darwin'
binary-path:     '/Users/thuannguyen/Documents/Coding/library/myProgram'
relocations:
  - { offsetInCU: 0x2F82, offset: 0x2F82, size: 0x8, addend: 0x0, symName: __ZNSt3__124__put_character_sequenceB7v160006IcNS_11char_traitsIcEEEERNS_13basic_ostreamIT_T0_EES7_PKS4_m, symObjAddr: 0x1240, symBinAddr: 0x100001774, symSize: 0x1EC }
  - { offsetInCU: 0x6DD7, offset: 0x6DD7, size: 0x8, addend: 0x0, symName: __ZNSt3__1lsB7v160006IcNS_11char_traitsIcEENS_9allocatorIcEEEERNS_13basic_ostreamIT_T0_EES9_RKNS_12basic_stringIS6_S7_T1_EE, symObjAddr: 0x384, symBinAddr: 0x1000008B8, symSize: 0x4C }
  - { offsetInCU: 0x6E2F, offset: 0x6E2F, size: 0x8, addend: 0x0, symName: __ZNSt3__1lsB7v160006INS_11char_traitsIcEEEERNS_13basic_ostreamIcT_EES6_PKc, symObjAddr: 0x3D0, symBinAddr: 0x100000904, symSize: 0x48 }
  - { offsetInCU: 0x6E75, offset: 0x6E75, size: 0x8, addend: 0x0, symName: __ZNSt3__14endlB7v160006IcNS_11char_traitsIcEEEERNS_13basic_ostreamIT_T0_EES7_, symObjAddr: 0x444, symBinAddr: 0x100000978, symSize: 0x58 }
  - { offsetInCU: 0x6EB5, offset: 0x6EB5, size: 0x8, addend: 0x0, symName: __ZNSt3__1neB7v160006IPK4BookEEbRKNS_11__wrap_iterIT_EES8_, symObjAddr: 0x594, symBinAddr: 0x100000AC8, symSize: 0x34 }
  - { offsetInCU: 0x6EF8, offset: 0x6EF8, size: 0x8, addend: 0x0, symName: __ZNSt3__1eqB7v160006INS_9allocatorIcEEEEbRKNS_12basic_stringIcNS_11char_traitsIcEET_EES9_, symObjAddr: 0x820, symBinAddr: 0x100000D54, symSize: 0x148 }
  - { offsetInCU: 0x6F6B, offset: 0x6F6B, size: 0x8, addend: 0x0, symName: __ZNSt3__17getlineB7v160006IcNS_11char_traitsIcEENS_9allocatorIcEEEERNS_13basic_istreamIT_T0_EES9_RNS_12basic_stringIS6_S7_T1_EE, symObjAddr: 0xBA4, symBinAddr: 0x1000010D8, symSize: 0x5C }
  - { offsetInCU: 0x6FC3, offset: 0x6FC3, size: 0x8, addend: 0x0, symName: '__ZNSt3__17find_ifB7v160006INS_11__wrap_iterIP4BookEEZNS2_10deleteBookERNS_6vectorIS2_NS_9allocatorIS2_EEEEiE3$_0EET_SB_SB_T0_', symObjAddr: 0xDA8, symBinAddr: 0x1000012DC, symSize: 0x7C }
  - { offsetInCU: 0x701D, offset: 0x701D, size: 0x8, addend: 0x0, symName: __ZNSt3__1neB7v160006IP4BookEEbRKNS_11__wrap_iterIT_EES7_, symObjAddr: 0xE84, symBinAddr: 0x1000013B8, symSize: 0x34 }
  - { offsetInCU: 0x707C, offset: 0x707C, size: 0x8, addend: 0x0, symName: __ZNSt3__1eqB7v160006IPK4BookEEbRKNS_11__wrap_iterIT_EES8_, symObjAddr: 0xFA0, symBinAddr: 0x1000014D4, symSize: 0x48 }
  - { offsetInCU: 0x70BF, offset: 0x70BF, size: 0x8, addend: 0x0, symName: __ZNSt3__1eqB7v160006IP4BookEEbRKNS_11__wrap_iterIT_EES7_, symObjAddr: 0x1000, symBinAddr: 0x100001534, symSize: 0x48 }
  - { offsetInCU: 0x7102, offset: 0x7102, size: 0x8, addend: 0x0, symName: __ZNSt3__119__debug_db_insert_cB7v160006INS_12basic_stringIcNS_11char_traitsIcEENS_9allocatorIcEEEEEEvPT_, symObjAddr: 0x10FC, symBinAddr: 0x100001630, symSize: 0x10 }
  - { offsetInCU: 0x7133, offset: 0x7133, size: 0x8, addend: 0x0, symName: __ZNSt3__116__pad_and_outputB7v160006IcNS_11char_traitsIcEEEENS_19ostreambuf_iteratorIT_T0_EES6_PKS4_S8_S8_RNS_8ios_baseES4_, symObjAddr: 0x147C, symBinAddr: 0x1000019B0, symSize: 0x240 }
  - { offsetInCU: 0x7202, offset: 0x7202, size: 0x8, addend: 0x0, symName: __ZNSt3__112__to_addressB7v160006IKcEEPT_S3_, symObjAddr: 0x18F4, symBinAddr: 0x100001E28, symSize: 0x14 }
  - { offsetInCU: 0x726A, offset: 0x726A, size: 0x8, addend: 0x0, symName: __ZNSt3__19use_facetB7v160006INS_5ctypeIcEEEERKT_RKNS_6localeE, symObjAddr: 0x1B6C, symBinAddr: 0x1000020A0, symSize: 0x2C }
  - { offsetInCU: 0x7739, offset: 0x7739, size: 0x8, addend: 0x0, symName: __ZNSt3__118__constexpr_strlenB7v160006EPKc, symObjAddr: 0x1C04, symBinAddr: 0x100002138, symSize: 0x24 }
  - { offsetInCU: 0x7765, offset: 0x7765, size: 0x8, addend: 0x0, symName: __ZNSt3__118__constexpr_memcmpB7v160006IcEEiPKT_S3_m, symObjAddr: 0x1DD8, symBinAddr: 0x10000230C, symSize: 0x34 }
  - { offsetInCU: 0x77B6, offset: 0x77B6, size: 0x8, addend: 0x0, symName: __ZNSt3__17getlineB7v160006IcNS_11char_traitsIcEENS_9allocatorIcEEEERNS_13basic_istreamIT_T0_EES9_RNS_12basic_stringIS6_S7_T1_EES6_, symObjAddr: 0x1E0C, symBinAddr: 0x100002340, symSize: 0x238 }
  - { offsetInCU: 0x7DFE, offset: 0x7DFE, size: 0x8, addend: 0x0, symName: __ZNSt3__125__debug_db_invalidate_allB7v160006INS_12basic_stringIcNS_11char_traitsIcEENS_9allocatorIcEEEEEEvPT_, symObjAddr: 0x22D4, symBinAddr: 0x100002808, symSize: 0x10 }
  - { offsetInCU: 0x8064, offset: 0x8064, size: 0x8, addend: 0x0, symName: __ZNSt3__112__to_addressB7v160006I4BookEEPT_S3_, symObjAddr: 0x2804, symBinAddr: 0x100002D38, symSize: 0x14 }
  - { offsetInCU: 0x8099, offset: 0x8099, size: 0x8, addend: 0x0, symName: __ZNSt3__13maxB7v160006ImEERKT_S3_S3_, symObjAddr: 0x2C78, symBinAddr: 0x1000031AC, symSize: 0x2C }
  - { offsetInCU: 0x80DC, offset: 0x80DC, size: 0x8, addend: 0x0, symName: __ZNSt3__13minB7v160006ImEERKT_S3_S3_, symObjAddr: 0x2CA4, symBinAddr: 0x1000031D8, symSize: 0x2C }
  - { offsetInCU: 0x8320, offset: 0x8320, size: 0x8, addend: 0x0, symName: __ZNSt3__13minB7v160006ImNS_6__lessImmEEEERKT_S5_S5_T0_, symObjAddr: 0x2D30, symBinAddr: 0x100003264, symSize: 0x54 }
  - { offsetInCU: 0x83B5, offset: 0x83B5, size: 0x8, addend: 0x0, symName: __ZNSt3__120__throw_length_errorB7v160006EPKc, symObjAddr: 0x2E10, symBinAddr: 0x100003344, symSize: 0x64 }
  - { offsetInCU: 0x83DD, offset: 0x83DD, size: 0x8, addend: 0x0, symName: __ZNSt3__13maxB7v160006ImNS_6__lessImmEEEERKT_S5_S5_T0_, symObjAddr: 0x2F54, symBinAddr: 0x100003488, symSize: 0x54 }
  - { offsetInCU: 0x8437, offset: 0x8437, size: 0x8, addend: 0x0, symName: __ZNSt3__119__allocate_at_leastB7v160006INS_9allocatorI4BookEEEENS_19__allocation_resultINS_16allocator_traitsIT_E7pointerEEERS6_m, symObjAddr: 0x30C4, symBinAddr: 0x1000035F8, symSize: 0x40 }
  - { offsetInCU: 0x847A, offset: 0x847A, size: 0x8, addend: 0x0, symName: __ZNSt3__117__libcpp_allocateB7v160006Emm, symObjAddr: 0x3268, symBinAddr: 0x10000379C, symSize: 0x28 }
  - { offsetInCU: 0x84B7, offset: 0x84B7, size: 0x8, addend: 0x0, symName: __ZNSt3__121__libcpp_operator_newB7v160006IJmEEEPvDpT_, symObjAddr: 0x3290, symBinAddr: 0x1000037C4, symSize: 0x24 }
  - { offsetInCU: 0x84F0, offset: 0x84F0, size: 0x8, addend: 0x0, symName: __ZNSt3__142__uninitialized_allocator_move_if_noexceptB7v160006INS_9allocatorI4BookEENS_16reverse_iteratorIPS2_EES6_S6_EET2_RT_T0_T1_S7_, symObjAddr: 0x33EC, symBinAddr: 0x100003920, symSize: 0x12C }
  - { offsetInCU: 0x8590, offset: 0x8590, size: 0x8, addend: 0x0, symName: __ZNSt3__14swapB7v160006IP4BookEENS_9enable_ifIXaasr21is_move_constructibleIT_EE5valuesr18is_move_assignableIS4_EE5valueEvE4typeERS4_S7_, symObjAddr: 0x3564, symBinAddr: 0x100003A98, symSize: 0x3C }
  - { offsetInCU: 0x85E1, offset: 0x85E1, size: 0x8, addend: 0x0, symName: __ZNSt3__125__debug_db_invalidate_allB7v160006INS_6vectorI4BookNS_9allocatorIS2_EEEEEEvPT_, symObjAddr: 0x3668, symBinAddr: 0x100003B9C, symSize: 0x10 }
  - { offsetInCU: 0x8612, offset: 0x8612, size: 0x8, addend: 0x0, symName: __ZNSt3__122__make_exception_guardB7v160006INS_29_AllocatorDestroyRangeReverseINS_9allocatorI4BookEENS_16reverse_iteratorIPS3_EEEEEENS_28__exception_guard_exceptionsIT_EESA_, symObjAddr: 0x36C0, symBinAddr: 0x100003BF4, symSize: 0x4C }
  - { offsetInCU: 0x8648, offset: 0x8648, size: 0x8, addend: 0x0, symName: __ZNSt3__1neB7v160006IP4BookS2_EEbRKNS_16reverse_iteratorIT_EERKNS3_IT0_EE, symObjAddr: 0x3750, symBinAddr: 0x100003C84, symSize: 0x48 }
  - { offsetInCU: 0x8694, offset: 0x8694, size: 0x8, addend: 0x0, symName: __ZNSt3__112__to_addressB7v160006INS_16reverse_iteratorIP4BookEEvEENS_5decayIDTclsr19__to_address_helperIT_EE6__callclsr3stdE7declvalIRKS6_EEEEE4typeES8_, symObjAddr: 0x37CC, symBinAddr: 0x100003D00, symSize: 0x24 }
  - { offsetInCU: 0x86CA, offset: 0x86CA, size: 0x8, addend: 0x0, symName: __ZNSt3__115__debug_db_swapB7v160006INS_12basic_stringIcNS_11char_traitsIcEENS_9allocatorIcEEEEEEvPT_S8_, symObjAddr: 0x3AC4, symBinAddr: 0x100003FF8, symSize: 0x14 }
  - { offsetInCU: 0x8732, offset: 0x8732, size: 0x8, addend: 0x0, symName: __ZNSt3__119__allocator_destroyB7v160006INS_9allocatorI4BookEENS_16reverse_iteratorINS4_IPS2_EEEES7_EEvRT_T0_T1_, symObjAddr: 0x3C38, symBinAddr: 0x10000416C, symSize: 0x70 }
  - { offsetInCU: 0x8797, offset: 0x8797, size: 0x8, addend: 0x0, symName: __ZNSt3__1neB7v160006INS_16reverse_iteratorIP4BookEES4_EEbRKNS1_IT_EERKNS1_IT0_EE, symObjAddr: 0x3CE4, symBinAddr: 0x100004218, symSize: 0x60 }
  - { offsetInCU: 0x87E3, offset: 0x87E3, size: 0x8, addend: 0x0, symName: __ZNSt3__112__to_addressB7v160006INS_16reverse_iteratorINS1_IP4BookEEEEvEENS_5decayIDTclsr19__to_address_helperIT_EE6__callclsr3stdE7declvalIRKS7_EEEEE4typeES9_, symObjAddr: 0x3D70, symBinAddr: 0x1000042A4, symSize: 0x24 }
  - { offsetInCU: 0x8842, offset: 0x8842, size: 0x8, addend: 0x0, symName: __ZNSt3__119__libcpp_deallocateB7v160006EPvmm, symObjAddr: 0x41A8, symBinAddr: 0x1000046DC, symSize: 0x30 }
  - { offsetInCU: 0x888A, offset: 0x888A, size: 0x8, addend: 0x0, symName: __ZNSt3__127__do_deallocate_handle_sizeB7v160006IJEEEvPvmDpT_, symObjAddr: 0x41D8, symBinAddr: 0x10000470C, symSize: 0x28 }
  - { offsetInCU: 0x88C8, offset: 0x88C8, size: 0x8, addend: 0x0, symName: __ZNSt3__124__libcpp_operator_deleteB7v160006IJPvEEEvDpT_, symObjAddr: 0x4200, symBinAddr: 0x100004734, symSize: 0x24 }
  - { offsetInCU: 0x88FD, offset: 0x88FD, size: 0x8, addend: 0x0, symName: __ZNSt3__1miB7v160006IPK4BookS3_EEDTmicldtfp_4baseEcldtfp0_4baseEERKNS_11__wrap_iterIT_EERKNS5_IT0_EE, symObjAddr: 0x4380, symBinAddr: 0x1000048B4, symSize: 0x48 }
  - { offsetInCU: 0x8949, offset: 0x8949, size: 0x8, addend: 0x0, symName: __ZNSt3__14moveB7v160006IP4BookS2_EET0_T_S4_S3_, symObjAddr: 0x4454, symBinAddr: 0x100004988, symSize: 0x40 }
  - { offsetInCU: 0x89A3, offset: 0x89A3, size: 0x8, addend: 0x0, symName: __ZNSt3__16__moveB7v160006INS_17_ClassicAlgPolicyEP4BookS3_S3_EENS_4pairIT0_T2_EES5_T1_S6_, symObjAddr: 0x4604, symBinAddr: 0x100004B38, symSize: 0x44 }
  - { offsetInCU: 0x8A0F, offset: 0x8A0F, size: 0x8, addend: 0x0, symName: __ZNSt3__123__dispatch_copy_or_moveB7v160006INS_17_ClassicAlgPolicyENS_11__move_loopIS1_EENS_14__move_trivialEP4BookS6_S6_EENS_4pairIT2_T4_EES8_T3_S9_, symObjAddr: 0x4648, symBinAddr: 0x100004B7C, symSize: 0x44 }
  - { offsetInCU: 0x8A8D, offset: 0x8A8D, size: 0x8, addend: 0x0, symName: __ZNSt3__121__unwrap_and_dispatchB7v160006INS_10__overloadINS_11__move_loopINS_17_ClassicAlgPolicyEEENS_14__move_trivialEEEP4BookS8_S8_Li0EEENS_4pairIT0_T2_EESA_T1_SB_, symObjAddr: 0x468C, symBinAddr: 0x100004BC0, symSize: 0xB4 }
  - { offsetInCU: 0x8B1B, offset: 0x8B1B, size: 0x8, addend: 0x0, symName: __ZNSt3__114__unwrap_rangeB7v160006IP4BookS2_EENS_4pairIT0_S4_EET_S6_, symObjAddr: 0x4740, symBinAddr: 0x100004C74, symSize: 0x60 }
  - { offsetInCU: 0x8C96, offset: 0x8C96, size: 0x8, addend: 0x0, symName: __ZNSt3__113__unwrap_iterB7v160006IP4BookNS_18__unwrap_iter_implIS2_Lb1EEELi0EEEDTclsrT0_8__unwrapclsr3stdE7declvalIT_EEEES6_, symObjAddr: 0x4830, symBinAddr: 0x100004D64, symSize: 0x24 }
  - { offsetInCU: 0x8CDA, offset: 0x8CDA, size: 0x8, addend: 0x0, symName: __ZNSt3__19make_pairB7v160006IP4BookS2_EENS_4pairINS_18__unwrap_ref_decayIT_E4typeENS4_IT0_E4typeEEEOS5_OS8_, symObjAddr: 0x4854, symBinAddr: 0x100004D88, symSize: 0x38 }
  - { offsetInCU: 0x8D29, offset: 0x8D29, size: 0x8, addend: 0x0, symName: __ZNSt3__114__rewrap_rangeB7v160006IP4BookS2_EET_S3_T0_, symObjAddr: 0x488C, symBinAddr: 0x100004DC0, symSize: 0x2C }
  - { offsetInCU: 0x8D75, offset: 0x8D75, size: 0x8, addend: 0x0, symName: __ZNSt3__113__rewrap_iterB7v160006IP4BookS2_NS_18__unwrap_iter_implIS2_Lb1EEEEET_S5_T0_, symObjAddr: 0x48B8, symBinAddr: 0x100004DEC, symSize: 0x3C }
  - { offsetInCU: 0x9100, offset: 0x9100, size: 0x8, addend: 0x0, symName: __ZSt28__throw_bad_array_new_lengthB7v160006v, symObjAddr: 0x3234, symBinAddr: 0x100003768, symSize: 0x34 }
  - { offsetInCU: 0x98B8, offset: 0x98B8, size: 0x8, addend: 0x0, symName: __ZNSt3__16vectorI4BookNS_9allocatorIS1_EEE26__swap_out_circular_bufferERNS_14__split_bufferIS1_RS3_EE, symObjAddr: 0x2A78, symBinAddr: 0x100002FAC, symSize: 0x118 }
  - { offsetInCU: 0xBAA8, offset: 0xBAA8, size: 0x8, addend: 0x0, symName: __ZN4BookC2ERKNSt3__112basic_stringIcNS0_11char_traitsIcEENS0_9allocatorIcEEEES8_iiiS8_S8_, symObjAddr: 0x0, symBinAddr: 0x100000534, symSize: 0x104 }
  - { offsetInCU: 0xBB35, offset: 0xBB35, size: 0x8, addend: 0x0, symName: __ZN4BookC1ERKNSt3__112basic_stringIcNS0_11char_traitsIcEENS0_9allocatorIcEEEES8_iiiS8_S8_, symObjAddr: 0x104, symBinAddr: 0x100000638, symSize: 0x64 }
  - { offsetInCU: 0xBBC2, offset: 0xBBC2, size: 0x8, addend: 0x0, symName: __ZNK4Book8getTitleEv, symObjAddr: 0x168, symBinAddr: 0x10000069C, symSize: 0x38 }
  - { offsetInCU: 0xBBE9, offset: 0xBBE9, size: 0x8, addend: 0x0, symName: __ZNK4Book9getAuthorEv, symObjAddr: 0x1A0, symBinAddr: 0x1000006D4, symSize: 0x3C }
  - { offsetInCU: 0xBC10, offset: 0xBC10, size: 0x8, addend: 0x0, symName: __ZNK4Book9getBookIDEv, symObjAddr: 0x1DC, symBinAddr: 0x100000710, symSize: 0x18 }
  - { offsetInCU: 0xBC37, offset: 0xBC37, size: 0x8, addend: 0x0, symName: __ZNK4Book11getQuantityEv, symObjAddr: 0x1F4, symBinAddr: 0x100000728, symSize: 0x18 }
  - { offsetInCU: 0xBC5E, offset: 0xBC5E, size: 0x8, addend: 0x0, symName: __ZNK4Book11getLocationEv, symObjAddr: 0x20C, symBinAddr: 0x100000740, symSize: 0x3C }
  - { offsetInCU: 0xBC85, offset: 0xBC85, size: 0x8, addend: 0x0, symName: __ZNK4Book7getYearEv, symObjAddr: 0x248, symBinAddr: 0x10000077C, symSize: 0x18 }
  - { offsetInCU: 0xBCAC, offset: 0xBCAC, size: 0x8, addend: 0x0, symName: __ZNK4Book11getCategoryEv, symObjAddr: 0x260, symBinAddr: 0x100000794, symSize: 0x3C }
  - { offsetInCU: 0xBCD3, offset: 0xBCD3, size: 0x8, addend: 0x0, symName: __ZNK4Book4viewEv, symObjAddr: 0x29C, symBinAddr: 0x1000007D0, symSize: 0xE8 }
  - { offsetInCU: 0xBCFA, offset: 0xBCFA, size: 0x8, addend: 0x0, symName: __ZNSt3__113basic_ostreamIcNS_11char_traitsIcEEElsB7v160006EPFRS3_S4_E, symObjAddr: 0x418, symBinAddr: 0x10000094C, symSize: 0x2C }
  - { offsetInCU: 0xBD2D, offset: 0xBD2D, size: 0x8, addend: 0x0, symName: __ZN4Book9listBooksERKNSt3__16vectorIS_NS0_9allocatorIS_EEEE, symObjAddr: 0x49C, symBinAddr: 0x1000009D0, symSize: 0x98 }
  - { offsetInCU: 0xBDA4, offset: 0xBDA4, size: 0x8, addend: 0x0, symName: __ZNKSt3__16vectorI4BookNS_9allocatorIS1_EEE5beginB7v160006Ev, symObjAddr: 0x534, symBinAddr: 0x100000A68, symSize: 0x30 }
  - { offsetInCU: 0xBDCA, offset: 0xBDCA, size: 0x8, addend: 0x0, symName: __ZNKSt3__16vectorI4BookNS_9allocatorIS1_EEE3endB7v160006Ev, symObjAddr: 0x564, symBinAddr: 0x100000A98, symSize: 0x30 }
  - { offsetInCU: 0xBDF1, offset: 0xBDF1, size: 0x8, addend: 0x0, symName: __ZNKSt3__111__wrap_iterIPK4BookEdeB7v160006Ev, symObjAddr: 0x5C8, symBinAddr: 0x100000AFC, symSize: 0x18 }
  - { offsetInCU: 0xBE16, offset: 0xBE16, size: 0x8, addend: 0x0, symName: __ZNSt3__111__wrap_iterIPK4BookEppB7v160006Ev, symObjAddr: 0x5E0, symBinAddr: 0x100000B14, symSize: 0x20 }
  - { offsetInCU: 0xBE3B, offset: 0xBE3B, size: 0x8, addend: 0x0, symName: __ZN4Book10searchBookERKNSt3__16vectorIS_NS0_9allocatorIS_EEEERKNS0_12basic_stringIcNS0_11char_traitsIcEENS2_IcEEEE, symObjAddr: 0x600, symBinAddr: 0x100000B34, symSize: 0x220 }
  - { offsetInCU: 0xBEAF, offset: 0xBEAF, size: 0x8, addend: 0x0, symName: __ZN4Book10addNewBookERNSt3__16vectorIS_NS0_9allocatorIS_EEEE, symObjAddr: 0x968, symBinAddr: 0x100000E9C, symSize: 0x208 }
  - { offsetInCU: 0xBF37, offset: 0xBF37, size: 0x8, addend: 0x0, symName: __ZNSt3__112basic_stringIcNS_11char_traitsIcEENS_9allocatorIcEEEC1B7v160006Ev, symObjAddr: 0xB70, symBinAddr: 0x1000010A4, symSize: 0x2C }
  - { offsetInCU: 0xBF60, offset: 0xBF60, size: 0x8, addend: 0x0, symName: __ZNSt3__111char_traitsIcE3eofEv, symObjAddr: 0xB9C, symBinAddr: 0x1000010D0, symSize: 0x8 }
  - { offsetInCU: 0xBF7D, offset: 0xBF7D, size: 0x8, addend: 0x0, symName: __ZNSt3__16vectorI4BookNS_9allocatorIS1_EEE12emplace_backIJRNS_12basic_stringIcNS_11char_traitsIcEENS2_IcEEEESB_RiSC_SC_SB_SB_EEEvDpOT_, symObjAddr: 0xC00, symBinAddr: 0x100001134, symSize: 0xB4 }
  - { offsetInCU: 0xC036, offset: 0xC036, size: 0x8, addend: 0x0, symName: __ZN4Book10deleteBookERNSt3__16vectorIS_NS0_9allocatorIS_EEEEi, symObjAddr: 0xCB4, symBinAddr: 0x1000011E8, symSize: 0xF4 }
  - { offsetInCU: 0xC0A1, offset: 0xC0A1, size: 0x8, addend: 0x0, symName: __ZNSt3__16vectorI4BookNS_9allocatorIS1_EEE5beginB7v160006Ev, symObjAddr: 0xE24, symBinAddr: 0x100001358, symSize: 0x30 }
  - { offsetInCU: 0xC0C7, offset: 0xC0C7, size: 0x8, addend: 0x0, symName: __ZNSt3__16vectorI4BookNS_9allocatorIS1_EEE3endB7v160006Ev, symObjAddr: 0xE54, symBinAddr: 0x100001388, symSize: 0x30 }
  - { offsetInCU: 0xC0ED, offset: 0xC0ED, size: 0x8, addend: 0x0, symName: __ZNSt3__16vectorI4BookNS_9allocatorIS1_EEE5eraseB7v160006ENS_11__wrap_iterIPKS1_EE, symObjAddr: 0xEB8, symBinAddr: 0x1000013EC, symSize: 0xAC }
  - { offsetInCU: 0xC14B, offset: 0xC14B, size: 0x8, addend: 0x0, symName: __ZNSt3__111__wrap_iterIPK4BookEC1B7v160006IPS1_EERKNS0_IT_EEPNS_9enable_ifIXsr14is_convertibleIS7_S3_EE5valueEvE4typeE, symObjAddr: 0xF64, symBinAddr: 0x100001498, symSize: 0x3C }
  - { offsetInCU: 0xC196, offset: 0xC196, size: 0x8, addend: 0x0, symName: __ZNKSt3__111__wrap_iterIPK4BookE4baseB7v160006Ev, symObjAddr: 0xFE8, symBinAddr: 0x10000151C, symSize: 0x18 }
  - { offsetInCU: 0xC1BB, offset: 0xC1BB, size: 0x8, addend: 0x0, symName: __ZNKSt3__111__wrap_iterIP4BookE4baseB7v160006Ev, symObjAddr: 0x1048, symBinAddr: 0x10000157C, symSize: 0x18 }
  - { offsetInCU: 0xC1E0, offset: 0xC1E0, size: 0x8, addend: 0x0, symName: __ZNSt3__112basic_stringIcNS_11char_traitsIcEENS_9allocatorIcEEEC2B7v160006Ev, symObjAddr: 0x1060, symBinAddr: 0x100001594, symSize: 0x54 }
  - { offsetInCU: 0xC20E, offset: 0xC20E, size: 0x8, addend: 0x0, symName: __ZNSt3__117__compressed_pairINS_12basic_stringIcNS_11char_traitsIcEENS_9allocatorIcEEE5__repES5_EC1B7v160006INS_18__default_init_tagESA_EEOT_OT0_, symObjAddr: 0x10B4, symBinAddr: 0x1000015E8, symSize: 0x3C }
  - { offsetInCU: 0xC265, offset: 0xC265, size: 0x8, addend: 0x0, symName: __ZNSt3__112basic_stringIcNS_11char_traitsIcEENS_9allocatorIcEEE14__default_initB7v160006Ev, symObjAddr: 0x110C, symBinAddr: 0x100001640, symSize: 0x40 }
  - { offsetInCU: 0xC28A, offset: 0xC28A, size: 0x8, addend: 0x0, symName: __ZNSt3__117__compressed_pairINS_12basic_stringIcNS_11char_traitsIcEENS_9allocatorIcEEE5__repES5_EC2B7v160006INS_18__default_init_tagESA_EEOT_OT0_, symObjAddr: 0x114C, symBinAddr: 0x100001680, symSize: 0x3C }
  - { offsetInCU: 0xC2E1, offset: 0xC2E1, size: 0x8, addend: 0x0, symName: __ZNSt3__122__compressed_pair_elemINS_12basic_stringIcNS_11char_traitsIcEENS_9allocatorIcEEE5__repELi0ELb0EEC2B7v160006ENS_18__default_init_tagE, symObjAddr: 0x1188, symBinAddr: 0x1000016BC, symSize: 0x14 }
  - { offsetInCU: 0xC315, offset: 0xC315, size: 0x8, addend: 0x0, symName: __ZNSt3__122__compressed_pair_elemINS_9allocatorIcEELi1ELb1EEC2B7v160006ENS_18__default_init_tagE, symObjAddr: 0x119C, symBinAddr: 0x1000016D0, symSize: 0x2C }
  - { offsetInCU: 0xC349, offset: 0xC349, size: 0x8, addend: 0x0, symName: __ZNSt3__19allocatorIcEC2B7v160006Ev, symObjAddr: 0x11C8, symBinAddr: 0x1000016FC, symSize: 0x2C }
  - { offsetInCU: 0xC372, offset: 0xC372, size: 0x8, addend: 0x0, symName: __ZNSt3__116__non_trivial_ifILb1ENS_9allocatorIcEEEC2B7v160006Ev, symObjAddr: 0x11F4, symBinAddr: 0x100001728, symSize: 0x14 }
  - { offsetInCU: 0xC39B, offset: 0xC39B, size: 0x8, addend: 0x0, symName: __ZNSt3__117__compressed_pairINS_12basic_stringIcNS_11char_traitsIcEENS_9allocatorIcEEE5__repES5_E5firstB7v160006Ev, symObjAddr: 0x1208, symBinAddr: 0x10000173C, symSize: 0x24 }
  - { offsetInCU: 0xC3C0, offset: 0xC3C0, size: 0x8, addend: 0x0, symName: __ZNSt3__122__compressed_pair_elemINS_12basic_stringIcNS_11char_traitsIcEENS_9allocatorIcEEE5__repELi0ELb0EE5__getB7v160006Ev, symObjAddr: 0x122C, symBinAddr: 0x100001760, symSize: 0x14 }
  - { offsetInCU: 0xC3E5, offset: 0xC3E5, size: 0x8, addend: 0x0, symName: __ZNSt3__111char_traitsIcE6lengthEPKc, symObjAddr: 0x142C, symBinAddr: 0x100001960, symSize: 0x34 }
  - { offsetInCU: 0xC426, offset: 0xC426, size: 0x8, addend: 0x0, symName: __ZNKSt3__113basic_ostreamIcNS_11char_traitsIcEEE6sentrycvbB7v160006Ev, symObjAddr: 0x1460, symBinAddr: 0x100001994, symSize: 0x1C }
  - { offsetInCU: 0xC44B, offset: 0xC44B, size: 0x8, addend: 0x0, symName: __ZNSt3__119ostreambuf_iteratorIcNS_11char_traitsIcEEEC1B7v160006ERNS_13basic_ostreamIcS2_EE, symObjAddr: 0x16BC, symBinAddr: 0x100001BF0, symSize: 0x34 }
  - { offsetInCU: 0xC482, offset: 0xC482, size: 0x8, addend: 0x0, symName: __ZNKSt3__18ios_base5flagsB7v160006Ev, symObjAddr: 0x16F0, symBinAddr: 0x100001C24, symSize: 0x18 }
  - { offsetInCU: 0xC4A8, offset: 0xC4A8, size: 0x8, addend: 0x0, symName: __ZNKSt3__19basic_iosIcNS_11char_traitsIcEEE4fillB7v160006Ev, symObjAddr: 0x1708, symBinAddr: 0x100001C3C, symSize: 0x64 }
  - { offsetInCU: 0xC4CF, offset: 0xC4CF, size: 0x8, addend: 0x0, symName: __ZNKSt3__119ostreambuf_iteratorIcNS_11char_traitsIcEEE6failedB7v160006Ev, symObjAddr: 0x176C, symBinAddr: 0x100001CA0, symSize: 0x24 }
  - { offsetInCU: 0xC4F4, offset: 0xC4F4, size: 0x8, addend: 0x0, symName: __ZNSt3__19basic_iosIcNS_11char_traitsIcEEE8setstateB7v160006Ej, symObjAddr: 0x1790, symBinAddr: 0x100001CC4, symSize: 0x2C }
  - { offsetInCU: 0xC528, offset: 0xC528, size: 0x8, addend: 0x0, symName: __ZNKSt3__18ios_base5widthB7v160006Ev, symObjAddr: 0x17BC, symBinAddr: 0x100001CF0, symSize: 0x18 }
  - { offsetInCU: 0xC54F, offset: 0xC54F, size: 0x8, addend: 0x0, symName: __ZNSt3__115basic_streambufIcNS_11char_traitsIcEEE5sputnB7v160006EPKcl, symObjAddr: 0x17D4, symBinAddr: 0x100001D08, symSize: 0x3C }
  - { offsetInCU: 0xC590, offset: 0xC590, size: 0x8, addend: 0x0, symName: __ZNSt3__112basic_stringIcNS_11char_traitsIcEENS_9allocatorIcEEEC1B7v160006Emc, symObjAddr: 0x1810, symBinAddr: 0x100001D44, symSize: 0x3C }
  - { offsetInCU: 0xC5D7, offset: 0xC5D7, size: 0x8, addend: 0x0, symName: __ZNKSt3__112basic_stringIcNS_11char_traitsIcEENS_9allocatorIcEEE4dataB7v160006Ev, symObjAddr: 0x184C, symBinAddr: 0x100001D80, symSize: 0x28 }
  - { offsetInCU: 0xC5FC, offset: 0xC5FC, size: 0x8, addend: 0x0, symName: __ZNSt3__18ios_base5widthB7v160006El, symObjAddr: 0x1874, symBinAddr: 0x100001DA8, symSize: 0x2C }
  - { offsetInCU: 0xC641, offset: 0xC641, size: 0x8, addend: 0x0, symName: __ZNSt3__112basic_stringIcNS_11char_traitsIcEENS_9allocatorIcEEEC2B7v160006Emc, symObjAddr: 0x18A0, symBinAddr: 0x100001DD4, symSize: 0x54 }
  - { offsetInCU: 0xC688, offset: 0xC688, size: 0x8, addend: 0x0, symName: __ZNKSt3__112basic_stringIcNS_11char_traitsIcEENS_9allocatorIcEEE13__get_pointerB7v160006Ev, symObjAddr: 0x1908, symBinAddr: 0x100001E3C, symSize: 0x54 }
  - { offsetInCU: 0xC6AD, offset: 0xC6AD, size: 0x8, addend: 0x0, symName: __ZNKSt3__112basic_stringIcNS_11char_traitsIcEENS_9allocatorIcEEE9__is_longB7v160006Ev, symObjAddr: 0x195C, symBinAddr: 0x100001E90, symSize: 0x38 }
  - { offsetInCU: 0xC6D2, offset: 0xC6D2, size: 0x8, addend: 0x0, symName: __ZNKSt3__112basic_stringIcNS_11char_traitsIcEENS_9allocatorIcEEE18__get_long_pointerB7v160006Ev, symObjAddr: 0x1994, symBinAddr: 0x100001EC8, symSize: 0x28 }
  - { offsetInCU: 0xC6F7, offset: 0xC6F7, size: 0x8, addend: 0x0, symName: __ZNKSt3__112basic_stringIcNS_11char_traitsIcEENS_9allocatorIcEEE19__get_short_pointerB7v160006Ev, symObjAddr: 0x19BC, symBinAddr: 0x100001EF0, symSize: 0x28 }
  - { offsetInCU: 0xC71C, offset: 0xC71C, size: 0x8, addend: 0x0, symName: __ZNKSt3__117__compressed_pairINS_12basic_stringIcNS_11char_traitsIcEENS_9allocatorIcEEE5__repES5_E5firstB7v160006Ev, symObjAddr: 0x19E4, symBinAddr: 0x100001F18, symSize: 0x24 }
  - { offsetInCU: 0xC741, offset: 0xC741, size: 0x8, addend: 0x0, symName: __ZNKSt3__122__compressed_pair_elemINS_12basic_stringIcNS_11char_traitsIcEENS_9allocatorIcEEE5__repELi0ELb0EE5__getB7v160006Ev, symObjAddr: 0x1A08, symBinAddr: 0x100001F3C, symSize: 0x14 }
  - { offsetInCU: 0xC766, offset: 0xC766, size: 0x8, addend: 0x0, symName: __ZNSt3__114pointer_traitsIPKcE10pointer_toB7v160006ERS1_, symObjAddr: 0x1A1C, symBinAddr: 0x100001F50, symSize: 0x14 }
  - { offsetInCU: 0xC789, offset: 0xC789, size: 0x8, addend: 0x0, symName: __ZNSt3__119ostreambuf_iteratorIcNS_11char_traitsIcEEEC2B7v160006ERNS_13basic_ostreamIcS2_EE, symObjAddr: 0x1A30, symBinAddr: 0x100001F64, symSize: 0x54 }
  - { offsetInCU: 0xC7BF, offset: 0xC7BF, size: 0x8, addend: 0x0, symName: __ZNKSt3__19basic_iosIcNS_11char_traitsIcEEE5rdbufB7v160006Ev, symObjAddr: 0x1A84, symBinAddr: 0x100001FB8, symSize: 0x24 }
  - { offsetInCU: 0xC7E6, offset: 0xC7E6, size: 0x8, addend: 0x0, symName: __ZNKSt3__18ios_base5rdbufB7v160006Ev, symObjAddr: 0x1AA8, symBinAddr: 0x100001FDC, symSize: 0x18 }
  - { offsetInCU: 0xC80B, offset: 0xC80B, size: 0x8, addend: 0x0, symName: __ZNSt3__111char_traitsIcE11eq_int_typeEii, symObjAddr: 0x1AC0, symBinAddr: 0x100001FF4, symSize: 0x28 }
  - { offsetInCU: 0xC83B, offset: 0xC83B, size: 0x8, addend: 0x0, symName: __ZNKSt3__19basic_iosIcNS_11char_traitsIcEEE5widenB7v160006Ec, symObjAddr: 0x1AE8, symBinAddr: 0x10000201C, symSize: 0x84 }
  - { offsetInCU: 0xC8A8, offset: 0xC8A8, size: 0x8, addend: 0x0, symName: __ZNKSt3__15ctypeIcE5widenB7v160006Ec, symObjAddr: 0x1B98, symBinAddr: 0x1000020CC, symSize: 0x38 }
  - { offsetInCU: 0xC8DB, offset: 0xC8DB, size: 0x8, addend: 0x0, symName: __ZNSt3__18ios_base8setstateB7v160006Ej, symObjAddr: 0x1BD0, symBinAddr: 0x100002104, symSize: 0x34 }
  - { offsetInCU: 0xC911, offset: 0xC911, size: 0x8, addend: 0x0, symName: __ZNKSt3__112basic_stringIcNS_11char_traitsIcEENS_9allocatorIcEEE4sizeB7v160006Ev, symObjAddr: 0x1C28, symBinAddr: 0x10000215C, symSize: 0x54 }
  - { offsetInCU: 0xC936, offset: 0xC936, size: 0x8, addend: 0x0, symName: __ZNKSt3__112basic_stringIcNS_11char_traitsIcEENS_9allocatorIcEEE15__get_long_sizeB7v160006Ev, symObjAddr: 0x1C7C, symBinAddr: 0x1000021B0, symSize: 0x28 }
  - { offsetInCU: 0xC95B, offset: 0xC95B, size: 0x8, addend: 0x0, symName: __ZNKSt3__112basic_stringIcNS_11char_traitsIcEENS_9allocatorIcEEE16__get_short_sizeB7v160006Ev, symObjAddr: 0x1CA4, symBinAddr: 0x1000021D8, symSize: 0x34 }
  - { offsetInCU: 0xC980, offset: 0xC980, size: 0x8, addend: 0x0, symName: __ZNKSt3__16vectorI4BookNS_9allocatorIS1_EEE11__make_iterB7v160006EPKS1_, symObjAddr: 0x1CD8, symBinAddr: 0x10000220C, symSize: 0x34 }
  - { offsetInCU: 0xC9B4, offset: 0xC9B4, size: 0x8, addend: 0x0, symName: __ZNSt3__111__wrap_iterIPK4BookEC1B7v160006EPKvS3_, symObjAddr: 0x1D0C, symBinAddr: 0x100002240, symSize: 0x3C }
  - { offsetInCU: 0xC9F9, offset: 0xC9F9, size: 0x8, addend: 0x0, symName: __ZNSt3__111__wrap_iterIPK4BookEC2B7v160006EPKvS3_, symObjAddr: 0x1D48, symBinAddr: 0x10000227C, symSize: 0x24 }
  - { offsetInCU: 0xCA3E, offset: 0xCA3E, size: 0x8, addend: 0x0, symName: __ZNSt3__111char_traitsIcE7compareEPKcS3_m, symObjAddr: 0x1D6C, symBinAddr: 0x1000022A0, symSize: 0x6C }
  - { offsetInCU: 0xCB0A, offset: 0xCB0A, size: 0x8, addend: 0x0, symName: __ZNKSt3__113basic_istreamIcNS_11char_traitsIcEEE6sentrycvbB7v160006Ev, symObjAddr: 0x2044, symBinAddr: 0x100002578, symSize: 0x1C }
  - { offsetInCU: 0xCB2E, offset: 0xCB2E, size: 0x8, addend: 0x0, symName: __ZNSt3__112basic_stringIcNS_11char_traitsIcEENS_9allocatorIcEEE5clearB7v160006Ev, symObjAddr: 0x2060, symBinAddr: 0x100002594, symSize: 0x88 }
  - { offsetInCU: 0xCB55, offset: 0xCB55, size: 0x8, addend: 0x0, symName: __ZNSt3__115basic_streambufIcNS_11char_traitsIcEEE6sbumpcB7v160006Ev, symObjAddr: 0x20E8, symBinAddr: 0x10000261C, symSize: 0x78 }
  - { offsetInCU: 0xCB7A, offset: 0xCB7A, size: 0x8, addend: 0x0, symName: __ZNSt3__111char_traitsIcE12to_char_typeEi, symObjAddr: 0x2160, symBinAddr: 0x100002694, symSize: 0x18 }
  - { offsetInCU: 0xCB9D, offset: 0xCB9D, size: 0x8, addend: 0x0, symName: __ZNSt3__111char_traitsIcE2eqEcc, symObjAddr: 0x2178, symBinAddr: 0x1000026AC, symSize: 0x28 }
  - { offsetInCU: 0xCBCE, offset: 0xCBCE, size: 0x8, addend: 0x0, symName: __ZNKSt3__112basic_stringIcNS_11char_traitsIcEENS_9allocatorIcEEE8max_sizeB7v160006Ev, symObjAddr: 0x21A0, symBinAddr: 0x1000026D4, symSize: 0xAC }
  - { offsetInCU: 0xCC20, offset: 0xCC20, size: 0x8, addend: 0x0, symName: __ZNSt3__18ios_base18__setstate_nothrowB7v160006Ej, symObjAddr: 0x224C, symBinAddr: 0x100002780, symSize: 0x64 }
  - { offsetInCU: 0xCC54, offset: 0xCC54, size: 0x8, addend: 0x0, symName: __ZNKSt3__19basic_iosIcNS_11char_traitsIcEEE10exceptionsB7v160006Ev, symObjAddr: 0x22B0, symBinAddr: 0x1000027E4, symSize: 0x24 }
  - { offsetInCU: 0xCC79, offset: 0xCC79, size: 0x8, addend: 0x0, symName: __ZNSt3__111char_traitsIcE6assignERcRKc, symObjAddr: 0x22E4, symBinAddr: 0x100002818, symSize: 0x24 }
  - { offsetInCU: 0xCCAA, offset: 0xCCAA, size: 0x8, addend: 0x0, symName: __ZNSt3__112basic_stringIcNS_11char_traitsIcEENS_9allocatorIcEEE18__get_long_pointerB7v160006Ev, symObjAddr: 0x2308, symBinAddr: 0x10000283C, symSize: 0x28 }
  - { offsetInCU: 0xCCCF, offset: 0xCCCF, size: 0x8, addend: 0x0, symName: __ZNSt3__112basic_stringIcNS_11char_traitsIcEENS_9allocatorIcEEE15__set_long_sizeB7v160006Em, symObjAddr: 0x2330, symBinAddr: 0x100002864, symSize: 0x38 }
  - { offsetInCU: 0xCD03, offset: 0xCD03, size: 0x8, addend: 0x0, symName: __ZNSt3__112basic_stringIcNS_11char_traitsIcEENS_9allocatorIcEEE19__get_short_pointerB7v160006Ev, symObjAddr: 0x2368, symBinAddr: 0x10000289C, symSize: 0x28 }
  - { offsetInCU: 0xCD28, offset: 0xCD28, size: 0x8, addend: 0x0, symName: __ZNSt3__112basic_stringIcNS_11char_traitsIcEENS_9allocatorIcEEE16__set_short_sizeB7v160006Em, symObjAddr: 0x2390, symBinAddr: 0x1000028C4, symSize: 0x78 }
  - { offsetInCU: 0xCD5C, offset: 0xCD5C, size: 0x8, addend: 0x0, symName: __ZNSt3__114pointer_traitsIPcE10pointer_toB7v160006ERc, symObjAddr: 0x2408, symBinAddr: 0x10000293C, symSize: 0x14 }
  - { offsetInCU: 0xCD7F, offset: 0xCD7F, size: 0x8, addend: 0x0, symName: __ZNSt3__111char_traitsIcE11to_int_typeEc, symObjAddr: 0x241C, symBinAddr: 0x100002950, symSize: 0x14 }
  - { offsetInCU: 0xCDAC, offset: 0xCDAC, size: 0x8, addend: 0x0, symName: __ZNSt3__116allocator_traitsINS_9allocatorIcEEE8max_sizeB7v160006IS2_vEEmRKS2_, symObjAddr: 0x2430, symBinAddr: 0x100002964, symSize: 0x24 }
  - { offsetInCU: 0xCDDA, offset: 0xCDDA, size: 0x8, addend: 0x0, symName: __ZNKSt3__112basic_stringIcNS_11char_traitsIcEENS_9allocatorIcEEE7__allocB7v160006Ev, symObjAddr: 0x2454, symBinAddr: 0x100002988, symSize: 0x24 }
  - { offsetInCU: 0xCDFF, offset: 0xCDFF, size: 0x8, addend: 0x0, symName: __ZNSt3__114numeric_limitsImE3maxB7v160006Ev, symObjAddr: 0x2478, symBinAddr: 0x1000029AC, symSize: 0x14 }
  - { offsetInCU: 0xCE13, offset: 0xCE13, size: 0x8, addend: 0x0, symName: __ZNKSt3__19allocatorIcE8max_sizeB7v160006Ev, symObjAddr: 0x248C, symBinAddr: 0x1000029C0, symSize: 0x14 }
  - { offsetInCU: 0xCE38, offset: 0xCE38, size: 0x8, addend: 0x0, symName: __ZNKSt3__117__compressed_pairINS_12basic_stringIcNS_11char_traitsIcEENS_9allocatorIcEEE5__repES5_E6secondB7v160006Ev, symObjAddr: 0x24A0, symBinAddr: 0x1000029D4, symSize: 0x24 }
  - { offsetInCU: 0xCE5D, offset: 0xCE5D, size: 0x8, addend: 0x0, symName: __ZNKSt3__122__compressed_pair_elemINS_9allocatorIcEELi1ELb1EE5__getB7v160006Ev, symObjAddr: 0x24C4, symBinAddr: 0x1000029F8, symSize: 0x14 }
  - { offsetInCU: 0xCE82, offset: 0xCE82, size: 0x8, addend: 0x0, symName: __ZNSt3__123__libcpp_numeric_limitsImLb1EE3maxB7v160006Ev, symObjAddr: 0x24D8, symBinAddr: 0x100002A0C, symSize: 0x8 }
  - { offsetInCU: 0xCE96, offset: 0xCE96, size: 0x8, addend: 0x0, symName: __ZNKSt3__18ios_base10exceptionsB7v160006Ev, symObjAddr: 0x24E0, symBinAddr: 0x100002A14, symSize: 0x18 }
  - { offsetInCU: 0xCEBD, offset: 0xCEBD, size: 0x8, addend: 0x0, symName: __ZNSt3__16vectorI4BookNS_9allocatorIS1_EEE9__end_capB7v160006Ev, symObjAddr: 0x24F8, symBinAddr: 0x100002A2C, symSize: 0x28 }
  - { offsetInCU: 0xCEE2, offset: 0xCEE2, size: 0x8, addend: 0x0, symName: __ZNSt3__16vectorI4BookNS_9allocatorIS1_EEE22__construct_one_at_endB7v160006IJRNS_12basic_stringIcNS_11char_traitsIcEENS2_IcEEEESB_RiSC_SC_SB_SB_EEEvDpOT_, symObjAddr: 0x2520, symBinAddr: 0x100002A54, symSize: 0xC8 }
  - { offsetInCU: 0xCFA8, offset: 0xCFA8, size: 0x8, addend: 0x0, symName: __ZNSt3__16vectorI4BookNS_9allocatorIS1_EEE24__emplace_back_slow_pathIJRNS_12basic_stringIcNS_11char_traitsIcEENS2_IcEEEESB_RiSC_SC_SB_SB_EEEvDpOT_, symObjAddr: 0x25E8, symBinAddr: 0x100002B1C, symSize: 0x110 }
  - { offsetInCU: 0xD080, offset: 0xD080, size: 0x8, addend: 0x0, symName: __ZNSt3__117__compressed_pairIP4BookNS_9allocatorIS1_EEE5firstB7v160006Ev, symObjAddr: 0x26F8, symBinAddr: 0x100002C2C, symSize: 0x24 }
  - { offsetInCU: 0xD0A5, offset: 0xD0A5, size: 0x8, addend: 0x0, symName: __ZNSt3__122__compressed_pair_elemIP4BookLi0ELb0EE5__getB7v160006Ev, symObjAddr: 0x271C, symBinAddr: 0x100002C50, symSize: 0x14 }
  - { offsetInCU: 0xD0E3, offset: 0xD0E3, size: 0x8, addend: 0x0, symName: __ZNSt3__16vectorI4BookNS_9allocatorIS1_EEE21_ConstructTransactionC1B7v160006ERS4_m, symObjAddr: 0x2730, symBinAddr: 0x100002C64, symSize: 0x3C }
  - { offsetInCU: 0xD12A, offset: 0xD12A, size: 0x8, addend: 0x0, symName: __ZNSt3__116allocator_traitsINS_9allocatorI4BookEEE9constructB7v160006IS2_JRNS_12basic_stringIcNS_11char_traitsIcEENS1_IcEEEESB_RiSC_SC_SB_SB_EvEEvRS3_PT_DpOT0_, symObjAddr: 0x276C, symBinAddr: 0x100002CA0, symSize: 0x70 }
  - { offsetInCU: 0xD1F9, offset: 0xD1F9, size: 0x8, addend: 0x0, symName: __ZNSt3__16vectorI4BookNS_9allocatorIS1_EEE7__allocB7v160006Ev, symObjAddr: 0x27DC, symBinAddr: 0x100002D10, symSize: 0x28 }
  - { offsetInCU: 0xD21E, offset: 0xD21E, size: 0x8, addend: 0x0, symName: __ZNSt3__16vectorI4BookNS_9allocatorIS1_EEE21_ConstructTransactionD1B7v160006Ev, symObjAddr: 0x2818, symBinAddr: 0x100002D4C, symSize: 0x2C }
  - { offsetInCU: 0xD247, offset: 0xD247, size: 0x8, addend: 0x0, symName: __ZNSt3__16vectorI4BookNS_9allocatorIS1_EEE21_ConstructTransactionC2B7v160006ERS4_m, symObjAddr: 0x2844, symBinAddr: 0x100002D78, symSize: 0x4C }
  - { offsetInCU: 0xD28E, offset: 0xD28E, size: 0x8, addend: 0x0, symName: __ZNSt3__19allocatorI4BookE9constructB7v160006IS1_JRNS_12basic_stringIcNS_11char_traitsIcEENS0_IcEEEES9_RiSA_SA_S9_S9_EEEvPT_DpOT0_, symObjAddr: 0x2890, symBinAddr: 0x100002DC4, symSize: 0x70 }
  - { offsetInCU: 0xD355, offset: 0xD355, size: 0x8, addend: 0x0, symName: __ZNSt3__117__compressed_pairIP4BookNS_9allocatorIS1_EEE6secondB7v160006Ev, symObjAddr: 0x2900, symBinAddr: 0x100002E34, symSize: 0x24 }
  - { offsetInCU: 0xD37A, offset: 0xD37A, size: 0x8, addend: 0x0, symName: __ZNSt3__122__compressed_pair_elemINS_9allocatorI4BookEELi1ELb1EE5__getB7v160006Ev, symObjAddr: 0x2924, symBinAddr: 0x100002E58, symSize: 0x14 }
  - { offsetInCU: 0xD39F, offset: 0xD39F, size: 0x8, addend: 0x0, symName: __ZNSt3__16vectorI4BookNS_9allocatorIS1_EEE21_ConstructTransactionD2B7v160006Ev, symObjAddr: 0x2938, symBinAddr: 0x100002E6C, symSize: 0x20 }
  - { offsetInCU: 0xD3C7, offset: 0xD3C7, size: 0x8, addend: 0x0, symName: __ZNKSt3__16vectorI4BookNS_9allocatorIS1_EEE11__recommendB7v160006Em, symObjAddr: 0x2958, symBinAddr: 0x100002E8C, symSize: 0xB4 }
  - { offsetInCU: 0xD41B, offset: 0xD41B, size: 0x8, addend: 0x0, symName: __ZNKSt3__16vectorI4BookNS_9allocatorIS1_EEE4sizeB7v160006Ev, symObjAddr: 0x2A0C, symBinAddr: 0x100002F40, symSize: 0x28 }
  - { offsetInCU: 0xD440, offset: 0xD440, size: 0x8, addend: 0x0, symName: __ZNSt3__114__split_bufferI4BookRNS_9allocatorIS1_EEEC1EmmS4_, symObjAddr: 0x2A34, symBinAddr: 0x100002F68, symSize: 0x44 }
  - { offsetInCU: 0xD495, offset: 0xD495, size: 0x8, addend: 0x0, symName: __ZNSt3__114__split_bufferI4BookRNS_9allocatorIS1_EEED1Ev, symObjAddr: 0x2B90, symBinAddr: 0x1000030C4, symSize: 0x2C }
  - { offsetInCU: 0xD4BF, offset: 0xD4BF, size: 0x8, addend: 0x0, symName: __ZNKSt3__16vectorI4BookNS_9allocatorIS1_EEE8max_sizeEv, symObjAddr: 0x2BBC, symBinAddr: 0x1000030F0, symSize: 0x60 }
  - { offsetInCU: 0xD4E6, offset: 0xD4E6, size: 0x8, addend: 0x0, symName: __ZNKSt3__16vectorI4BookNS_9allocatorIS1_EEE20__throw_length_errorB7v160006Ev, symObjAddr: 0x2C1C, symBinAddr: 0x100003150, symSize: 0x1C }
  - { offsetInCU: 0xD50B, offset: 0xD50B, size: 0x8, addend: 0x0, symName: __ZNKSt3__16vectorI4BookNS_9allocatorIS1_EEE8capacityB7v160006Ev, symObjAddr: 0x2C38, symBinAddr: 0x10000316C, symSize: 0x40 }
  - { offsetInCU: 0xD53A, offset: 0xD53A, size: 0x8, addend: 0x0, symName: __ZNSt3__116allocator_traitsINS_9allocatorI4BookEEE8max_sizeB7v160006IS3_vEEmRKS3_, symObjAddr: 0x2CD0, symBinAddr: 0x100003204, symSize: 0x24 }
  - { offsetInCU: 0xD568, offset: 0xD568, size: 0x8, addend: 0x0, symName: __ZNKSt3__16vectorI4BookNS_9allocatorIS1_EEE7__allocB7v160006Ev, symObjAddr: 0x2CF4, symBinAddr: 0x100003228, symSize: 0x28 }
  - { offsetInCU: 0xD58D, offset: 0xD58D, size: 0x8, addend: 0x0, symName: __ZNSt3__114numeric_limitsIlE3maxB7v160006Ev, symObjAddr: 0x2D1C, symBinAddr: 0x100003250, symSize: 0x14 }
  - { offsetInCU: 0xD5B5, offset: 0xD5B5, size: 0x8, addend: 0x0, symName: __ZNKSt3__16__lessImmEclB7v160006ERKmS3_, symObjAddr: 0x2D84, symBinAddr: 0x1000032B8, symSize: 0x34 }
  - { offsetInCU: 0xD5F6, offset: 0xD5F6, size: 0x8, addend: 0x0, symName: __ZNKSt3__19allocatorI4BookE8max_sizeB7v160006Ev, symObjAddr: 0x2DB8, symBinAddr: 0x1000032EC, symSize: 0x18 }
  - { offsetInCU: 0xD61B, offset: 0xD61B, size: 0x8, addend: 0x0, symName: __ZNKSt3__117__compressed_pairIP4BookNS_9allocatorIS1_EEE6secondB7v160006Ev, symObjAddr: 0x2DD0, symBinAddr: 0x100003304, symSize: 0x24 }
  - { offsetInCU: 0xD640, offset: 0xD640, size: 0x8, addend: 0x0, symName: __ZNKSt3__122__compressed_pair_elemINS_9allocatorI4BookEELi1ELb1EE5__getB7v160006Ev, symObjAddr: 0x2DF4, symBinAddr: 0x100003328, symSize: 0x14 }
  - { offsetInCU: 0xD665, offset: 0xD665, size: 0x8, addend: 0x0, symName: __ZNSt3__123__libcpp_numeric_limitsIlLb1EE3maxB7v160006Ev, symObjAddr: 0x2E08, symBinAddr: 0x10000333C, symSize: 0x8 }
  - { offsetInCU: 0xD679, offset: 0xD679, size: 0x8, addend: 0x0, symName: __ZNSt12length_errorC1B7v160006EPKc, symObjAddr: 0x2E74, symBinAddr: 0x1000033A8, symSize: 0x34 }
  - { offsetInCU: 0xD6B0, offset: 0xD6B0, size: 0x8, addend: 0x0, symName: __ZNSt12length_errorC2B7v160006EPKc, symObjAddr: 0x2EA8, symBinAddr: 0x1000033DC, symSize: 0x4C }
  - { offsetInCU: 0xD6E7, offset: 0xD6E7, size: 0x8, addend: 0x0, symName: __ZNKSt3__16vectorI4BookNS_9allocatorIS1_EEE9__end_capB7v160006Ev, symObjAddr: 0x2EF4, symBinAddr: 0x100003428, symSize: 0x28 }
  - { offsetInCU: 0xD70C, offset: 0xD70C, size: 0x8, addend: 0x0, symName: __ZNKSt3__117__compressed_pairIP4BookNS_9allocatorIS1_EEE5firstB7v160006Ev, symObjAddr: 0x2F1C, symBinAddr: 0x100003450, symSize: 0x24 }
  - { offsetInCU: 0xD731, offset: 0xD731, size: 0x8, addend: 0x0, symName: __ZNKSt3__122__compressed_pair_elemIP4BookLi0ELb0EE5__getB7v160006Ev, symObjAddr: 0x2F40, symBinAddr: 0x100003474, symSize: 0x14 }
  - { offsetInCU: 0xD756, offset: 0xD756, size: 0x8, addend: 0x0, symName: __ZNSt3__114__split_bufferI4BookRNS_9allocatorIS1_EEEC2EmmS4_, symObjAddr: 0x2FA8, symBinAddr: 0x1000034DC, symSize: 0xE0 }
  - { offsetInCU: 0xD7CE, offset: 0xD7CE, size: 0x8, addend: 0x0, symName: __ZNSt3__117__compressed_pairIP4BookRNS_9allocatorIS1_EEEC1B7v160006IDnS5_EEOT_OT0_, symObjAddr: 0x3088, symBinAddr: 0x1000035BC, symSize: 0x3C }
  - { offsetInCU: 0xD825, offset: 0xD825, size: 0x8, addend: 0x0, symName: __ZNSt3__114__split_bufferI4BookRNS_9allocatorIS1_EEE7__allocB7v160006Ev, symObjAddr: 0x3104, symBinAddr: 0x100003638, symSize: 0x28 }
  - { offsetInCU: 0xD84A, offset: 0xD84A, size: 0x8, addend: 0x0, symName: __ZNSt3__114__split_bufferI4BookRNS_9allocatorIS1_EEE9__end_capB7v160006Ev, symObjAddr: 0x312C, symBinAddr: 0x100003660, symSize: 0x28 }
  - { offsetInCU: 0xD86F, offset: 0xD86F, size: 0x8, addend: 0x0, symName: __ZNSt3__117__compressed_pairIP4BookRNS_9allocatorIS1_EEEC2B7v160006IDnS5_EEOT_OT0_, symObjAddr: 0x3154, symBinAddr: 0x100003688, symSize: 0x48 }
  - { offsetInCU: 0xD8C6, offset: 0xD8C6, size: 0x8, addend: 0x0, symName: __ZNSt3__122__compressed_pair_elemIP4BookLi0ELb0EEC2B7v160006IDnvEEOT_, symObjAddr: 0x319C, symBinAddr: 0x1000036D0, symSize: 0x1C }
  - { offsetInCU: 0xD907, offset: 0xD907, size: 0x8, addend: 0x0, symName: __ZNSt3__122__compressed_pair_elemIRNS_9allocatorI4BookEELi1ELb0EEC2B7v160006IS4_vEEOT_, symObjAddr: 0x31B8, symBinAddr: 0x1000036EC, symSize: 0x20 }
  - { offsetInCU: 0xD948, offset: 0xD948, size: 0x8, addend: 0x0, symName: __ZNSt3__19allocatorI4BookE8allocateB7v160006Em, symObjAddr: 0x31D8, symBinAddr: 0x10000370C, symSize: 0x5C }
  - { offsetInCU: 0xD97B, offset: 0xD97B, size: 0x8, addend: 0x0, symName: __ZNSt3__117__compressed_pairIP4BookRNS_9allocatorIS1_EEE6secondB7v160006Ev, symObjAddr: 0x32B4, symBinAddr: 0x1000037E8, symSize: 0x28 }
  - { offsetInCU: 0xD9A0, offset: 0xD9A0, size: 0x8, addend: 0x0, symName: __ZNSt3__122__compressed_pair_elemIRNS_9allocatorI4BookEELi1ELb0EE5__getB7v160006Ev, symObjAddr: 0x32DC, symBinAddr: 0x100003810, symSize: 0x18 }
  - { offsetInCU: 0xD9C5, offset: 0xD9C5, size: 0x8, addend: 0x0, symName: __ZNSt3__117__compressed_pairIP4BookRNS_9allocatorIS1_EEE5firstB7v160006Ev, symObjAddr: 0x32F4, symBinAddr: 0x100003828, symSize: 0x24 }
  - { offsetInCU: 0xD9EA, offset: 0xD9EA, size: 0x8, addend: 0x0, symName: __ZNKSt3__16vectorI4BookNS_9allocatorIS1_EEE17__annotate_deleteB7v160006Ev, symObjAddr: 0x3318, symBinAddr: 0x10000384C, symSize: 0xD4 }
  - { offsetInCU: 0xDA0F, offset: 0xDA0F, size: 0x8, addend: 0x0, symName: __ZNSt3__116reverse_iteratorIP4BookEC1B7v160006ES2_, symObjAddr: 0x3518, symBinAddr: 0x100003A4C, symSize: 0x34 }
  - { offsetInCU: 0xDA46, offset: 0xDA46, size: 0x8, addend: 0x0, symName: __ZNKSt3__116reverse_iteratorIP4BookE4baseB7v160006Ev, symObjAddr: 0x354C, symBinAddr: 0x100003A80, symSize: 0x18 }
  - { offsetInCU: 0xDA6B, offset: 0xDA6B, size: 0x8, addend: 0x0, symName: __ZNKSt3__16vectorI4BookNS_9allocatorIS1_EEE14__annotate_newB7v160006Em, symObjAddr: 0x35A0, symBinAddr: 0x100003AD4, symSize: 0xC8 }
  - { offsetInCU: 0xDA9F, offset: 0xDA9F, size: 0x8, addend: 0x0, symName: __ZNKSt3__16vectorI4BookNS_9allocatorIS1_EEE31__annotate_contiguous_containerB7v160006EPKvS6_S6_S6_, symObjAddr: 0x3678, symBinAddr: 0x100003BAC, symSize: 0x20 }
  - { offsetInCU: 0xDAF4, offset: 0xDAF4, size: 0x8, addend: 0x0, symName: __ZNKSt3__16vectorI4BookNS_9allocatorIS1_EEE4dataB7v160006Ev, symObjAddr: 0x3698, symBinAddr: 0x100003BCC, symSize: 0x28 }
  - { offsetInCU: 0xDB19, offset: 0xDB19, size: 0x8, addend: 0x0, symName: __ZNSt3__129_AllocatorDestroyRangeReverseINS_9allocatorI4BookEENS_16reverse_iteratorIPS2_EEEC1B7v160006ERS3_RS6_S9_, symObjAddr: 0x370C, symBinAddr: 0x100003C40, symSize: 0x44 }
  - { offsetInCU: 0xDB74, offset: 0xDB74, size: 0x8, addend: 0x0, symName: __ZNSt3__116allocator_traitsINS_9allocatorI4BookEEE9constructB7v160006IS2_JS2_EvEEvRS3_PT_DpOT0_, symObjAddr: 0x3798, symBinAddr: 0x100003CCC, symSize: 0x34 }
  - { offsetInCU: 0xDBCB, offset: 0xDBCB, size: 0x8, addend: 0x0, symName: __ZNKSt3__116reverse_iteratorIP4BookEdeB7v160006Ev, symObjAddr: 0x37F0, symBinAddr: 0x100003D24, symSize: 0x28 }
  - { offsetInCU: 0xDBFE, offset: 0xDBFE, size: 0x8, addend: 0x0, symName: __ZNSt3__116reverse_iteratorIP4BookEppB7v160006Ev, symObjAddr: 0x3818, symBinAddr: 0x100003D4C, symSize: 0x20 }
  - { offsetInCU: 0xDC23, offset: 0xDC23, size: 0x8, addend: 0x0, symName: __ZNSt3__128__exception_guard_exceptionsINS_29_AllocatorDestroyRangeReverseINS_9allocatorI4BookEENS_16reverse_iteratorIPS3_EEEEE10__completeB7v160006Ev, symObjAddr: 0x3838, symBinAddr: 0x100003D6C, symSize: 0x1C }
  - { offsetInCU: 0xDC48, offset: 0xDC48, size: 0x8, addend: 0x0, symName: __ZNSt3__128__exception_guard_exceptionsINS_29_AllocatorDestroyRangeReverseINS_9allocatorI4BookEENS_16reverse_iteratorIPS3_EEEEED1B7v160006Ev, symObjAddr: 0x3854, symBinAddr: 0x100003D88, symSize: 0x2C }
  - { offsetInCU: 0xDC71, offset: 0xDC71, size: 0x8, addend: 0x0, symName: __ZNSt3__128__exception_guard_exceptionsINS_29_AllocatorDestroyRangeReverseINS_9allocatorI4BookEENS_16reverse_iteratorIPS3_EEEEEC1B7v160006ES8_, symObjAddr: 0x3880, symBinAddr: 0x100003DB4, symSize: 0x34 }
  - { offsetInCU: 0xDCA9, offset: 0xDCA9, size: 0x8, addend: 0x0, symName: __ZNSt3__128__exception_guard_exceptionsINS_29_AllocatorDestroyRangeReverseINS_9allocatorI4BookEENS_16reverse_iteratorIPS3_EEEEEC2B7v160006ES8_, symObjAddr: 0x38B4, symBinAddr: 0x100003DE8, symSize: 0x30 }
  - { offsetInCU: 0xDCE1, offset: 0xDCE1, size: 0x8, addend: 0x0, symName: __ZNSt3__129_AllocatorDestroyRangeReverseINS_9allocatorI4BookEENS_16reverse_iteratorIPS2_EEEC2B7v160006ERS3_RS6_S9_, symObjAddr: 0x38E4, symBinAddr: 0x100003E18, symSize: 0x38 }
  - { offsetInCU: 0xDD37, offset: 0xDD37, size: 0x8, addend: 0x0, symName: __ZNSt3__19allocatorI4BookE9constructB7v160006IS1_JS1_EEEvPT_DpOT0_, symObjAddr: 0x391C, symBinAddr: 0x100003E50, symSize: 0x30 }
  - { offsetInCU: 0xDD8C, offset: 0xDD8C, size: 0x8, addend: 0x0, symName: __ZN4BookC1EOS_, symObjAddr: 0x394C, symBinAddr: 0x100003E80, symSize: 0x34 }
  - { offsetInCU: 0xDDC0, offset: 0xDDC0, size: 0x8, addend: 0x0, symName: __ZN4BookC2EOS_, symObjAddr: 0x3980, symBinAddr: 0x100003EB4, symSize: 0x90 }
  - { offsetInCU: 0xDDF4, offset: 0xDDF4, size: 0x8, addend: 0x0, symName: __ZNSt3__112basic_stringIcNS_11char_traitsIcEENS_9allocatorIcEEEC1B7v160006EOS5_, symObjAddr: 0x3A10, symBinAddr: 0x100003F44, symSize: 0x34 }
  - { offsetInCU: 0xDE2C, offset: 0xDE2C, size: 0x8, addend: 0x0, symName: __ZNSt3__112basic_stringIcNS_11char_traitsIcEENS_9allocatorIcEEEC2B7v160006EOS5_, symObjAddr: 0x3A44, symBinAddr: 0x100003F78, symSize: 0x80 }
  - { offsetInCU: 0xDE69, offset: 0xDE69, size: 0x8, addend: 0x0, symName: __ZNSt3__119__to_address_helperINS_16reverse_iteratorIP4BookEEvE6__callB7v160006ERKS4_, symObjAddr: 0x3AD8, symBinAddr: 0x10000400C, symSize: 0x38 }
  - { offsetInCU: 0xDE8C, offset: 0xDE8C, size: 0x8, addend: 0x0, symName: __ZNKSt3__116reverse_iteratorIP4BookEptB7v160006Ev, symObjAddr: 0x3B10, symBinAddr: 0x100004044, symSize: 0x24 }
  - { offsetInCU: 0xDEB1, offset: 0xDEB1, size: 0x8, addend: 0x0, symName: __ZNSt3__128__exception_guard_exceptionsINS_29_AllocatorDestroyRangeReverseINS_9allocatorI4BookEENS_16reverse_iteratorIPS3_EEEEED2B7v160006Ev, symObjAddr: 0x3B34, symBinAddr: 0x100004068, symSize: 0x50 }
  - { offsetInCU: 0xDEDA, offset: 0xDEDA, size: 0x8, addend: 0x0, symName: __ZNKSt3__129_AllocatorDestroyRangeReverseINS_9allocatorI4BookEENS_16reverse_iteratorIPS2_EEEclB7v160006Ev, symObjAddr: 0x3B84, symBinAddr: 0x1000040B8, symSize: 0xB4 }
  - { offsetInCU: 0xDF00, offset: 0xDF00, size: 0x8, addend: 0x0, symName: __ZNSt3__116reverse_iteratorINS0_IP4BookEEEC1B7v160006ES3_, symObjAddr: 0x3CA8, symBinAddr: 0x1000041DC, symSize: 0x3C }
  - { offsetInCU: 0xDF37, offset: 0xDF37, size: 0x8, addend: 0x0, symName: __ZNSt3__116allocator_traitsINS_9allocatorI4BookEEE7destroyB7v160006IS2_vEEvRS3_PT_, symObjAddr: 0x3D44, symBinAddr: 0x100004278, symSize: 0x2C }
  - { offsetInCU: 0xDF74, offset: 0xDF74, size: 0x8, addend: 0x0, symName: __ZNSt3__116reverse_iteratorINS0_IP4BookEEEppB7v160006Ev, symObjAddr: 0x3D94, symBinAddr: 0x1000042C8, symSize: 0x30 }
  - { offsetInCU: 0xDF99, offset: 0xDF99, size: 0x8, addend: 0x0, symName: __ZNKSt3__116reverse_iteratorINS0_IP4BookEEE4baseB7v160006Ev, symObjAddr: 0x3DC4, symBinAddr: 0x1000042F8, symSize: 0x24 }
  - { offsetInCU: 0xDFBE, offset: 0xDFBE, size: 0x8, addend: 0x0, symName: __ZNSt3__19allocatorI4BookE7destroyB7v160006EPS1_, symObjAddr: 0x3DE8, symBinAddr: 0x10000431C, symSize: 0x28 }
  - { offsetInCU: 0xDFF1, offset: 0xDFF1, size: 0x8, addend: 0x0, symName: __ZN4BookD1Ev, symObjAddr: 0x3E10, symBinAddr: 0x100004344, symSize: 0x2C }
  - { offsetInCU: 0xE01C, offset: 0xE01C, size: 0x8, addend: 0x0, symName: __ZN4BookD2Ev, symObjAddr: 0x3E3C, symBinAddr: 0x100004370, symSize: 0x50 }
  - { offsetInCU: 0xE04C, offset: 0xE04C, size: 0x8, addend: 0x0, symName: __ZNSt3__119__to_address_helperINS_16reverse_iteratorINS1_IP4BookEEEEvE6__callB7v160006ERKS5_, symObjAddr: 0x3E8C, symBinAddr: 0x1000043C0, symSize: 0x38 }
  - { offsetInCU: 0xE06F, offset: 0xE06F, size: 0x8, addend: 0x0, symName: __ZNKSt3__116reverse_iteratorINS0_IP4BookEEEptB7v160006Ev, symObjAddr: 0x3EC4, symBinAddr: 0x1000043F8, symSize: 0x24 }
  - { offsetInCU: 0xE094, offset: 0xE094, size: 0x8, addend: 0x0, symName: __ZNKSt3__116reverse_iteratorINS0_IP4BookEEEdeB7v160006Ev, symObjAddr: 0x3EE8, symBinAddr: 0x10000441C, symSize: 0x34 }
  - { offsetInCU: 0xE0C7, offset: 0xE0C7, size: 0x8, addend: 0x0, symName: __ZNSt3__116reverse_iteratorIP4BookEmmB7v160006Ev, symObjAddr: 0x3F1C, symBinAddr: 0x100004450, symSize: 0x20 }
  - { offsetInCU: 0xE0EC, offset: 0xE0EC, size: 0x8, addend: 0x0, symName: __ZNSt3__116reverse_iteratorINS0_IP4BookEEEC2B7v160006ES3_, symObjAddr: 0x3F3C, symBinAddr: 0x100004470, symSize: 0x2C }
  - { offsetInCU: 0xE123, offset: 0xE123, size: 0x8, addend: 0x0, symName: __ZNSt3__116reverse_iteratorIP4BookEC2B7v160006ES2_, symObjAddr: 0x3F68, symBinAddr: 0x10000449C, symSize: 0x28 }
  - { offsetInCU: 0xE15A, offset: 0xE15A, size: 0x8, addend: 0x0, symName: __ZNSt3__114__split_bufferI4BookRNS_9allocatorIS1_EEED2Ev, symObjAddr: 0x3F90, symBinAddr: 0x1000044C4, symSize: 0x8C }
  - { offsetInCU: 0xE185, offset: 0xE185, size: 0x8, addend: 0x0, symName: __ZNSt3__114__split_bufferI4BookRNS_9allocatorIS1_EEE5clearB7v160006Ev, symObjAddr: 0x401C, symBinAddr: 0x100004550, symSize: 0x28 }
  - { offsetInCU: 0xE1AA, offset: 0xE1AA, size: 0x8, addend: 0x0, symName: __ZNSt3__116allocator_traitsINS_9allocatorI4BookEEE10deallocateB7v160006ERS3_PS2_m, symObjAddr: 0x4044, symBinAddr: 0x100004578, symSize: 0x34 }
  - { offsetInCU: 0xE1EC, offset: 0xE1EC, size: 0x8, addend: 0x0, symName: __ZNKSt3__114__split_bufferI4BookRNS_9allocatorIS1_EEE8capacityB7v160006Ev, symObjAddr: 0x4078, symBinAddr: 0x1000045AC, symSize: 0x40 }
  - { offsetInCU: 0xE211, offset: 0xE211, size: 0x8, addend: 0x0, symName: __ZNSt3__114__split_bufferI4BookRNS_9allocatorIS1_EEE17__destruct_at_endB7v160006EPS1_, symObjAddr: 0x40B8, symBinAddr: 0x1000045EC, symSize: 0x2C }
  - { offsetInCU: 0xE243, offset: 0xE243, size: 0x8, addend: 0x0, symName: __ZNSt3__114__split_bufferI4BookRNS_9allocatorIS1_EEE17__destruct_at_endB7v160006EPS1_NS_17integral_constantIbLb0EEE, symObjAddr: 0x40E4, symBinAddr: 0x100004618, symSize: 0x80 }
  - { offsetInCU: 0xE283, offset: 0xE283, size: 0x8, addend: 0x0, symName: __ZNSt3__19allocatorI4BookE10deallocateB7v160006EPS1_m, symObjAddr: 0x4164, symBinAddr: 0x100004698, symSize: 0x44 }
  - { offsetInCU: 0xE2C4, offset: 0xE2C4, size: 0x8, addend: 0x0, symName: __ZNKSt3__114__split_bufferI4BookRNS_9allocatorIS1_EEE9__end_capB7v160006Ev, symObjAddr: 0x4224, symBinAddr: 0x100004758, symSize: 0x28 }
  - { offsetInCU: 0xE2E9, offset: 0xE2E9, size: 0x8, addend: 0x0, symName: __ZNKSt3__117__compressed_pairIP4BookRNS_9allocatorIS1_EEE5firstB7v160006Ev, symObjAddr: 0x424C, symBinAddr: 0x100004780, symSize: 0x24 }
  - { offsetInCU: 0xE30E, offset: 0xE30E, size: 0x8, addend: 0x0, symName: __ZNSt3__16vectorI4BookNS_9allocatorIS1_EEE11__make_iterB7v160006EPS1_, symObjAddr: 0x4270, symBinAddr: 0x1000047A4, symSize: 0x34 }
  - { offsetInCU: 0xE342, offset: 0xE342, size: 0x8, addend: 0x0, symName: __ZNSt3__111__wrap_iterIP4BookEC1B7v160006EPKvS2_, symObjAddr: 0x42A4, symBinAddr: 0x1000047D8, symSize: 0x3C }
  - { offsetInCU: 0xE387, offset: 0xE387, size: 0x8, addend: 0x0, symName: __ZNSt3__111__wrap_iterIP4BookEC2B7v160006EPKvS2_, symObjAddr: 0x42E0, symBinAddr: 0x100004814, symSize: 0x24 }
  - { offsetInCU: 0xE3D6, offset: 0xE3D6, size: 0x8, addend: 0x0, symName: '__ZZN4Book10deleteBookERNSt3__16vectorIS_NS0_9allocatorIS_EEEEiENK3$_0clERKS_', symObjAddr: 0x4304, symBinAddr: 0x100004838, symSize: 0x44 }
  - { offsetInCU: 0xE40D, offset: 0xE40D, size: 0x8, addend: 0x0, symName: __ZNKSt3__111__wrap_iterIP4BookEdeB7v160006Ev, symObjAddr: 0x4348, symBinAddr: 0x10000487C, symSize: 0x18 }
  - { offsetInCU: 0xE432, offset: 0xE432, size: 0x8, addend: 0x0, symName: __ZNSt3__111__wrap_iterIP4BookEppB7v160006Ev, symObjAddr: 0x4360, symBinAddr: 0x100004894, symSize: 0x20 }
  - { offsetInCU: 0xE457, offset: 0xE457, size: 0x8, addend: 0x0, symName: __ZNKSt3__16vectorI4BookNS_9allocatorIS1_EEE6cbeginB7v160006Ev, symObjAddr: 0x43C8, symBinAddr: 0x1000048FC, symSize: 0x2C }
  - { offsetInCU: 0xE47C, offset: 0xE47C, size: 0x8, addend: 0x0, symName: __ZNSt3__16vectorI4BookNS_9allocatorIS1_EEE17__destruct_at_endB7v160006EPS1_, symObjAddr: 0x43F4, symBinAddr: 0x100004928, symSize: 0x60 }
  - { offsetInCU: 0xE4BF, offset: 0xE4BF, size: 0x8, addend: 0x0, symName: __ZNSt3__16vectorI4BookNS_9allocatorIS1_EEE27__invalidate_iterators_pastB7v160006EPS1_, symObjAddr: 0x4494, symBinAddr: 0x1000049C8, symSize: 0x14 }
  - { offsetInCU: 0xE4F5, offset: 0xE4F5, size: 0x8, addend: 0x0, symName: __ZNSt3__16vectorI4BookNS_9allocatorIS1_EEE22__base_destruct_at_endB7v160006EPS1_, symObjAddr: 0x44A8, symBinAddr: 0x1000049DC, symSize: 0x8C }
  - { offsetInCU: 0xE538, offset: 0xE538, size: 0x8, addend: 0x0, symName: __ZNKSt3__16vectorI4BookNS_9allocatorIS1_EEE17__annotate_shrinkB7v160006Em, symObjAddr: 0x4534, symBinAddr: 0x100004A68, symSize: 0xD0 }
  - { offsetInCU: 0xE58F, offset: 0xE58F, size: 0x8, addend: 0x0, symName: __ZNKSt3__111__move_loopINS_17_ClassicAlgPolicyEEclB7v160006IP4BookS5_S5_EENS_4pairIT_T1_EES7_T0_S8_, symObjAddr: 0x47A0, symBinAddr: 0x100004CD4, symSize: 0x90 }
  - { offsetInCU: 0xE5F9, offset: 0xE5F9, size: 0x8, addend: 0x0, symName: __ZNSt3__18_IterOpsINS_17_ClassicAlgPolicyEE11__iter_moveB7v160006IRP4BookEENS_9enable_ifIXsr12is_referenceIDTdeclsr3stdE7declvalIRT_EEEEE5valueEDTclsr3stdE4movedeclsr3stdE7declvalIS9_EEEEE4typeEOS8_, symObjAddr: 0x48F4, symBinAddr: 0x100004E28, symSize: 0x28 }
  - { offsetInCU: 0xE625, offset: 0xE625, size: 0x8, addend: 0x0, symName: __ZN4BookaSEOS_, symObjAddr: 0x491C, symBinAddr: 0x100004E50, symSize: 0x90 }
  - { offsetInCU: 0xE655, offset: 0xE655, size: 0x8, addend: 0x0, symName: __ZNSt3__18_IterOpsINS_17_ClassicAlgPolicyEE25__validate_iter_referenceB7v160006IRP4BookEEvv, symObjAddr: 0x49AC, symBinAddr: 0x100004EE0, symSize: 0x4 }
  - { offsetInCU: 0xE673, offset: 0xE673, size: 0x8, addend: 0x0, symName: __ZNSt3__112basic_stringIcNS_11char_traitsIcEENS_9allocatorIcEEEaSB7v160006EOS5_, symObjAddr: 0x49B0, symBinAddr: 0x100004EE4, symSize: 0x34 }
  - { offsetInCU: 0xE6A6, offset: 0xE6A6, size: 0x8, addend: 0x0, symName: __ZNSt3__112basic_stringIcNS_11char_traitsIcEENS_9allocatorIcEEE13__move_assignB7v160006ERS5_NS_17integral_constantIbLb1EEE, symObjAddr: 0x49E4, symBinAddr: 0x100004F18, symSize: 0xC8 }
  - { offsetInCU: 0xE6E8, offset: 0xE6E8, size: 0x8, addend: 0x0, symName: __ZNSt3__116allocator_traitsINS_9allocatorIcEEE10deallocateB7v160006ERS2_Pcm, symObjAddr: 0x4AAC, symBinAddr: 0x100004FE0, symSize: 0x34 }
  - { offsetInCU: 0xE72A, offset: 0xE72A, size: 0x8, addend: 0x0, symName: __ZNSt3__112basic_stringIcNS_11char_traitsIcEENS_9allocatorIcEEE7__allocB7v160006Ev, symObjAddr: 0x4AE0, symBinAddr: 0x100005014, symSize: 0x24 }
  - { offsetInCU: 0xE74F, offset: 0xE74F, size: 0x8, addend: 0x0, symName: __ZNKSt3__112basic_stringIcNS_11char_traitsIcEENS_9allocatorIcEEE14__get_long_capB7v160006Ev, symObjAddr: 0x4B04, symBinAddr: 0x100005038, symSize: 0x30 }
  - { offsetInCU: 0xE774, offset: 0xE774, size: 0x8, addend: 0x0, symName: __ZNSt3__112basic_stringIcNS_11char_traitsIcEENS_9allocatorIcEEE19__move_assign_allocB7v160006ERS5_, symObjAddr: 0x4B34, symBinAddr: 0x100005068, symSize: 0x2C }
  - { offsetInCU: 0xE7A8, offset: 0xE7A8, size: 0x8, addend: 0x0, symName: __ZNSt3__19allocatorIcE10deallocateB7v160006EPcm, symObjAddr: 0x4B60, symBinAddr: 0x100005094, symSize: 0x40 }
  - { offsetInCU: 0xE7E9, offset: 0xE7E9, size: 0x8, addend: 0x0, symName: __ZNSt3__117__compressed_pairINS_12basic_stringIcNS_11char_traitsIcEENS_9allocatorIcEEE5__repES5_E6secondB7v160006Ev, symObjAddr: 0x4BA0, symBinAddr: 0x1000050D4, symSize: 0x24 }
  - { offsetInCU: 0xE80E, offset: 0xE80E, size: 0x8, addend: 0x0, symName: __ZNSt3__122__compressed_pair_elemINS_9allocatorIcEELi1ELb1EE5__getB7v160006Ev, symObjAddr: 0x4BC4, symBinAddr: 0x1000050F8, symSize: 0x14 }
  - { offsetInCU: 0xE833, offset: 0xE833, size: 0x8, addend: 0x0, symName: __ZNSt3__112basic_stringIcNS_11char_traitsIcEENS_9allocatorIcEEE19__move_assign_allocB7v160006ERS5_NS_17integral_constantIbLb1EEE, symObjAddr: 0x4BD8, symBinAddr: 0x10000510C, symSize: 0x38 }
  - { offsetInCU: 0xE873, offset: 0xE873, size: 0x8, addend: 0x0, symName: __ZNSt3__118__unwrap_iter_implIP4BookLb1EE8__unwrapB7v160006ES2_, symObjAddr: 0x4C10, symBinAddr: 0x100005144, symSize: 0x24 }
  - { offsetInCU: 0xE89B, offset: 0xE89B, size: 0x8, addend: 0x0, symName: __ZNSt3__14pairIP4BookS2_EC1B7v160006IS2_S2_LPv0EEEOT_OT0_, symObjAddr: 0x4C34, symBinAddr: 0x100005168, symSize: 0x3C }
  - { offsetInCU: 0xE8F8, offset: 0xE8F8, size: 0x8, addend: 0x0, symName: __ZNSt3__14pairIP4BookS2_EC2B7v160006IS2_S2_LPv0EEEOT_OT0_, symObjAddr: 0x4C70, symBinAddr: 0x1000051A4, symSize: 0x34 }
  - { offsetInCU: 0xE955, offset: 0xE955, size: 0x8, addend: 0x0, symName: __ZNSt3__118__unwrap_iter_implIP4BookLb1EE8__rewrapB7v160006ES2_S2_, symObjAddr: 0x4CA4, symBinAddr: 0x1000051D8, symSize: 0x58 }
  - { offsetInCU: 0xE986, offset: 0xE986, size: 0x8, addend: 0x0, symName: __ZNSt3__111__wrap_iterIPK4BookEC2B7v160006IPS1_EERKNS0_IT_EEPNS_9enable_ifIXsr14is_convertibleIS7_S3_EE5valueEvE4typeE, symObjAddr: 0x4CFC, symBinAddr: 0x100005230, symSize: 0x40 }
  - { offsetInCU: 0x57F3, offset: 0x142B3, size: 0x8, addend: 0x0, symName: __ZN7CatalogC2ERKNSt3__16vectorI4BookNS0_9allocatorIS2_EEEE, symObjAddr: 0x0, symBinAddr: 0x100005270, symSize: 0x20 }
  - { offsetInCU: 0x582C, offset: 0x142EC, size: 0x8, addend: 0x0, symName: __ZN7CatalogC1ERKNSt3__16vectorI4BookNS0_9allocatorIS2_EEEE, symObjAddr: 0x20, symBinAddr: 0x100005290, symSize: 0x34 }
  - { offsetInCU: 0x5865, offset: 0x14325, size: 0x8, addend: 0x0, symName: __ZNK7Catalog17viewBooksByAuthorERKNSt3__112basic_stringIcNS0_11char_traitsIcEENS0_9allocatorIcEEEE, symObjAddr: 0x54, symBinAddr: 0x1000052C4, symSize: 0x30 }
  - { offsetInCU: 0x589A, offset: 0x1435A, size: 0x8, addend: 0x0, symName: __ZN7Catalog17listBooksByAuthorERKNSt3__16vectorI4BookNS0_9allocatorIS2_EEEERKNS0_12basic_stringIcNS0_11char_traitsIcEENS3_IcEEEE, symObjAddr: 0x84, symBinAddr: 0x1000052F4, symSize: 0xEC }
  - { offsetInCU: 0x5920, offset: 0x143E0, size: 0x8, addend: 0x0, symName: __ZNK7Catalog16viewBooksByTitleERKNSt3__112basic_stringIcNS0_11char_traitsIcEENS0_9allocatorIcEEEE, symObjAddr: 0x170, symBinAddr: 0x1000053E0, symSize: 0x30 }
  - { offsetInCU: 0x5955, offset: 0x14415, size: 0x8, addend: 0x0, symName: __ZN7Catalog16listBooksByTitleERKNSt3__16vectorI4BookNS0_9allocatorIS2_EEEERKNS0_12basic_stringIcNS0_11char_traitsIcEENS3_IcEEEE, symObjAddr: 0x1A0, symBinAddr: 0x100005410, symSize: 0xEC }
  - { offsetInCU: 0x59DB, offset: 0x1449B, size: 0x8, addend: 0x0, symName: __ZNK7Catalog15viewBooksByYearEi, symObjAddr: 0x28C, symBinAddr: 0x1000054FC, symSize: 0x30 }
  - { offsetInCU: 0x5A10, offset: 0x144D0, size: 0x8, addend: 0x0, symName: __ZN7Catalog15listBooksByYearERKNSt3__16vectorI4BookNS0_9allocatorIS2_EEEEi, symObjAddr: 0x2BC, symBinAddr: 0x10000552C, symSize: 0xD0 }
  - { offsetInCU: 0x5A96, offset: 0x14556, size: 0x8, addend: 0x0, symName: __ZNK7Catalog19viewBooksByCategoryERKNSt3__112basic_stringIcNS0_11char_traitsIcEENS0_9allocatorIcEEEE, symObjAddr: 0x38C, symBinAddr: 0x1000055FC, symSize: 0x30 }
  - { offsetInCU: 0x5ACB, offset: 0x1458B, size: 0x8, addend: 0x0, symName: __ZN7Catalog19listBooksByCategoryERKNSt3__16vectorI4BookNS0_9allocatorIS2_EEEERKNS0_12basic_stringIcNS0_11char_traitsIcEENS3_IcEEEE, symObjAddr: 0x3BC, symBinAddr: 0x10000562C, symSize: 0xEC }
  - { offsetInCU: 0x7EB9, offset: 0x1C4D4, size: 0x8, addend: 0x0, symName: __ZNSt3__1neB7v160006IPK6MemberEEbRKNS_11__wrap_iterIT_EES8_, symObjAddr: 0x420, symBinAddr: 0x1000059A0, symSize: 0x34 }
  - { offsetInCU: 0x7EFC, offset: 0x1C517, size: 0x8, addend: 0x0, symName: __ZNSt3__1neB7v160006IPK11TransactionEEbRKNS_11__wrap_iterIT_EES8_, symObjAddr: 0x588, symBinAddr: 0x100005B08, symSize: 0x34 }
  - { offsetInCU: 0x7F3F, offset: 0x1C55A, size: 0x8, addend: 0x0, symName: '__ZNSt3__17find_ifB7v160006INS_11__wrap_iterIP4BookEEZN7Library10deleteBookEiE3$_0EET_S7_S7_T0_', symObjAddr: 0x91C, symBinAddr: 0x100005E9C, symSize: 0x7C }
  - { offsetInCU: 0x7F99, offset: 0x1C5B4, size: 0x8, addend: 0x0, symName: '__ZNSt3__17find_ifB7v160006INS_11__wrap_iterIP6MemberEEZN7Library12deleteMemberEiE3$_1EET_S7_S7_T0_', symObjAddr: 0xC1C, symBinAddr: 0x100006020, symSize: 0x7C }
  - { offsetInCU: 0x7FF3, offset: 0x1C60E, size: 0x8, addend: 0x0, symName: __ZNSt3__1neB7v160006IP6MemberEEbRKNS_11__wrap_iterIT_EES7_, symObjAddr: 0xCF8, symBinAddr: 0x1000060FC, symSize: 0x34 }
  - { offsetInCU: 0x8036, offset: 0x1C651, size: 0x8, addend: 0x0, symName: '__ZNSt3__17find_ifB7v160006INS_11__wrap_iterIP11TransactionEEZN7Library17deleteTransactionEiE3$_2EET_S7_S7_T0_', symObjAddr: 0xF1C, symBinAddr: 0x100006320, symSize: 0x7C }
  - { offsetInCU: 0x8090, offset: 0x1C6AB, size: 0x8, addend: 0x0, symName: __ZNSt3__1neB7v160006IP11TransactionEEbRKNS_11__wrap_iterIT_EES7_, symObjAddr: 0xFF8, symBinAddr: 0x1000063FC, symSize: 0x34 }
  - { offsetInCU: 0x80D3, offset: 0x1C6EE, size: 0x8, addend: 0x0, symName: __ZNSt3__1eqB7v160006IPK6MemberEEbRKNS_11__wrap_iterIT_EES8_, symObjAddr: 0x1350, symBinAddr: 0x1000066F4, symSize: 0x48 }
  - { offsetInCU: 0x8116, offset: 0x1C731, size: 0x8, addend: 0x0, symName: __ZNSt3__1eqB7v160006IPK11TransactionEEbRKNS_11__wrap_iterIT_EES8_, symObjAddr: 0x13B0, symBinAddr: 0x100006754, symSize: 0x48 }
  - { offsetInCU: 0x8159, offset: 0x1C774, size: 0x8, addend: 0x0, symName: __ZNSt3__1eqB7v160006IP6MemberEEbRKNS_11__wrap_iterIT_EES7_, symObjAddr: 0x1470, symBinAddr: 0x1000067B4, symSize: 0x48 }
  - { offsetInCU: 0x819C, offset: 0x1C7B7, size: 0x8, addend: 0x0, symName: __ZNSt3__1eqB7v160006IP11TransactionEEbRKNS_11__wrap_iterIT_EES7_, symObjAddr: 0x14D0, symBinAddr: 0x100006814, symSize: 0x48 }
  - { offsetInCU: 0x81DF, offset: 0x1C7FA, size: 0x8, addend: 0x0, symName: __ZNSt3__119__debug_db_insert_cB7v160006INS_6vectorI4BookNS_9allocatorIS2_EEEEEEvPT_, symObjAddr: 0x15D0, symBinAddr: 0x100006908, symSize: 0x10 }
  - { offsetInCU: 0x8210, offset: 0x1C82B, size: 0x8, addend: 0x0, symName: __ZNSt3__119__debug_db_insert_cB7v160006INS_6vectorI6MemberNS_9allocatorIS2_EEEEEEvPT_, symObjAddr: 0x173C, symBinAddr: 0x100006A58, symSize: 0x10 }
  - { offsetInCU: 0x8241, offset: 0x1C85C, size: 0x8, addend: 0x0, symName: __ZNSt3__119__debug_db_insert_cB7v160006INS_6vectorI11TransactionNS_9allocatorIS2_EEEEEEvPT_, symObjAddr: 0x18A8, symBinAddr: 0x100006BC4, symSize: 0x10 }
  - { offsetInCU: 0x8272, offset: 0x1C88D, size: 0x8, addend: 0x0, symName: __ZNSt3__112__to_addressB7v160006I6MemberEEPT_S3_, symObjAddr: 0x46B4, symBinAddr: 0x100007324, symSize: 0x14 }
  - { offsetInCU: 0x82A7, offset: 0x1C8C2, size: 0x8, addend: 0x0, symName: __ZNSt3__119__allocate_at_leastB7v160006INS_9allocatorI6MemberEEEENS_19__allocation_resultINS_16allocator_traitsIT_E7pointerEEERS6_m, symObjAddr: 0x4DB8, symBinAddr: 0x100007A28, symSize: 0x40 }
  - { offsetInCU: 0x82EA, offset: 0x1C905, size: 0x8, addend: 0x0, symName: __ZNSt3__142__uninitialized_allocator_move_if_noexceptB7v160006INS_9allocatorI6MemberEENS_16reverse_iteratorIPS2_EES6_S6_EET2_RT_T0_T1_S7_, symObjAddr: 0x5044, symBinAddr: 0x100007CB4, symSize: 0x12C }
  - { offsetInCU: 0x838A, offset: 0x1C9A5, size: 0x8, addend: 0x0, symName: __ZNSt3__14swapB7v160006IP6MemberEENS_9enable_ifIXaasr21is_move_constructibleIT_EE5valuesr18is_move_assignableIS4_EE5valueEvE4typeERS4_S7_, symObjAddr: 0x51BC, symBinAddr: 0x100007E2C, symSize: 0x3C }
  - { offsetInCU: 0x83DB, offset: 0x1C9F6, size: 0x8, addend: 0x0, symName: __ZNSt3__125__debug_db_invalidate_allB7v160006INS_6vectorI6MemberNS_9allocatorIS2_EEEEEEvPT_, symObjAddr: 0x52C0, symBinAddr: 0x100007F30, symSize: 0x10 }
  - { offsetInCU: 0x840C, offset: 0x1CA27, size: 0x8, addend: 0x0, symName: __ZNSt3__122__make_exception_guardB7v160006INS_29_AllocatorDestroyRangeReverseINS_9allocatorI6MemberEENS_16reverse_iteratorIPS3_EEEEEENS_28__exception_guard_exceptionsIT_EESA_, symObjAddr: 0x5318, symBinAddr: 0x100007F88, symSize: 0x4C }
  - { offsetInCU: 0x8442, offset: 0x1CA5D, size: 0x8, addend: 0x0, symName: __ZNSt3__1neB7v160006IP6MemberS2_EEbRKNS_16reverse_iteratorIT_EERKNS3_IT0_EE, symObjAddr: 0x53A8, symBinAddr: 0x100008018, symSize: 0x48 }
  - { offsetInCU: 0x848E, offset: 0x1CAA9, size: 0x8, addend: 0x0, symName: __ZNSt3__112__to_addressB7v160006INS_16reverse_iteratorIP6MemberEEvEENS_5decayIDTclsr19__to_address_helperIT_EE6__callclsr3stdE7declvalIRKS6_EEEEE4typeES8_, symObjAddr: 0x5424, symBinAddr: 0x100008094, symSize: 0x24 }
  - { offsetInCU: 0x84ED, offset: 0x1CB08, size: 0x8, addend: 0x0, symName: __ZNSt3__119__allocator_destroyB7v160006INS_9allocatorI6MemberEENS_16reverse_iteratorINS4_IPS2_EEEES7_EEvRT_T0_T1_, symObjAddr: 0x578C, symBinAddr: 0x1000083FC, symSize: 0x70 }
  - { offsetInCU: 0x8552, offset: 0x1CB6D, size: 0x8, addend: 0x0, symName: __ZNSt3__1neB7v160006INS_16reverse_iteratorIP6MemberEES4_EEbRKNS1_IT_EERKNS1_IT0_EE, symObjAddr: 0x5838, symBinAddr: 0x1000084A8, symSize: 0x60 }
  - { offsetInCU: 0x859E, offset: 0x1CBB9, size: 0x8, addend: 0x0, symName: __ZNSt3__112__to_addressB7v160006INS_16reverse_iteratorINS1_IP6MemberEEEEvEENS_5decayIDTclsr19__to_address_helperIT_EE6__callclsr3stdE7declvalIRKS7_EEEEE4typeES9_, symObjAddr: 0x58C4, symBinAddr: 0x100008534, symSize: 0x24 }
  - { offsetInCU: 0x85FD, offset: 0x1CC18, size: 0x8, addend: 0x0, symName: __ZNSt3__112__to_addressB7v160006I11TransactionEEPT_S3_, symObjAddr: 0x5F90, symBinAddr: 0x100008C00, symSize: 0x14 }
  - { offsetInCU: 0x8632, offset: 0x1CC4D, size: 0x8, addend: 0x0, symName: __ZNSt3__119__allocate_at_leastB7v160006INS_9allocatorI11TransactionEEEENS_19__allocation_resultINS_16allocator_traitsIT_E7pointerEEERS6_m, symObjAddr: 0x6688, symBinAddr: 0x1000092F8, symSize: 0x40 }
  - { offsetInCU: 0x8675, offset: 0x1CC90, size: 0x8, addend: 0x0, symName: __ZNSt3__142__uninitialized_allocator_move_if_noexceptB7v160006INS_9allocatorI11TransactionEENS_16reverse_iteratorIPS2_EES6_S6_EET2_RT_T0_T1_S7_, symObjAddr: 0x68F4, symBinAddr: 0x100009564, symSize: 0x12C }
  - { offsetInCU: 0x8715, offset: 0x1CD30, size: 0x8, addend: 0x0, symName: __ZNSt3__14swapB7v160006IP11TransactionEENS_9enable_ifIXaasr21is_move_constructibleIT_EE5valuesr18is_move_assignableIS4_EE5valueEvE4typeERS4_S7_, symObjAddr: 0x6A6C, symBinAddr: 0x1000096DC, symSize: 0x3C }
  - { offsetInCU: 0x8766, offset: 0x1CD81, size: 0x8, addend: 0x0, symName: __ZNSt3__125__debug_db_invalidate_allB7v160006INS_6vectorI11TransactionNS_9allocatorIS2_EEEEEEvPT_, symObjAddr: 0x6B54, symBinAddr: 0x1000097C4, symSize: 0x10 }
  - { offsetInCU: 0x8797, offset: 0x1CDB2, size: 0x8, addend: 0x0, symName: __ZNSt3__122__make_exception_guardB7v160006INS_29_AllocatorDestroyRangeReverseINS_9allocatorI11TransactionEENS_16reverse_iteratorIPS3_EEEEEENS_28__exception_guard_exceptionsIT_EESA_, symObjAddr: 0x6BAC, symBinAddr: 0x10000981C, symSize: 0x4C }
  - { offsetInCU: 0x87CD, offset: 0x1CDE8, size: 0x8, addend: 0x0, symName: __ZNSt3__1neB7v160006IP11TransactionS2_EEbRKNS_16reverse_iteratorIT_EERKNS3_IT0_EE, symObjAddr: 0x6C3C, symBinAddr: 0x1000098AC, symSize: 0x48 }
  - { offsetInCU: 0x8819, offset: 0x1CE34, size: 0x8, addend: 0x0, symName: __ZNSt3__112__to_addressB7v160006INS_16reverse_iteratorIP11TransactionEEvEENS_5decayIDTclsr19__to_address_helperIT_EE6__callclsr3stdE7declvalIRKS6_EEEEE4typeES8_, symObjAddr: 0x6CB8, symBinAddr: 0x100009928, symSize: 0x24 }
  - { offsetInCU: 0x8878, offset: 0x1CE93, size: 0x8, addend: 0x0, symName: __ZNSt3__119__allocator_destroyB7v160006INS_9allocatorI11TransactionEENS_16reverse_iteratorINS4_IPS2_EEEES7_EEvRT_T0_T1_, symObjAddr: 0x7030, symBinAddr: 0x100009CA0, symSize: 0x70 }
  - { offsetInCU: 0x88DD, offset: 0x1CEF8, size: 0x8, addend: 0x0, symName: __ZNSt3__1neB7v160006INS_16reverse_iteratorIP11TransactionEES4_EEbRKNS1_IT_EERKNS1_IT0_EE, symObjAddr: 0x70DC, symBinAddr: 0x100009D4C, symSize: 0x60 }
  - { offsetInCU: 0x8929, offset: 0x1CF44, size: 0x8, addend: 0x0, symName: __ZNSt3__112__to_addressB7v160006INS_16reverse_iteratorINS1_IP11TransactionEEEEvEENS_5decayIDTclsr19__to_address_helperIT_EE6__callclsr3stdE7declvalIRKS7_EEEEE4typeES9_, symObjAddr: 0x7168, symBinAddr: 0x100009DD8, symSize: 0x24 }
  - { offsetInCU: 0x8BD8, offset: 0x1D1F3, size: 0x8, addend: 0x0, symName: __ZNSt3__1miB7v160006IPK6MemberS3_EEDTmicldtfp_4baseEcldtfp0_4baseEERKNS_11__wrap_iterIT_EERKNS5_IT0_EE, symObjAddr: 0x82B0, symBinAddr: 0x10000A398, symSize: 0x48 }
  - { offsetInCU: 0x8C24, offset: 0x1D23F, size: 0x8, addend: 0x0, symName: __ZNSt3__14moveB7v160006IP6MemberS2_EET0_T_S4_S3_, symObjAddr: 0x8384, symBinAddr: 0x10000A46C, symSize: 0x40 }
  - { offsetInCU: 0x8C7E, offset: 0x1D299, size: 0x8, addend: 0x0, symName: __ZNSt3__16__moveB7v160006INS_17_ClassicAlgPolicyEP6MemberS3_S3_EENS_4pairIT0_T2_EES5_T1_S6_, symObjAddr: 0x8534, symBinAddr: 0x10000A61C, symSize: 0x44 }
  - { offsetInCU: 0x8CEA, offset: 0x1D305, size: 0x8, addend: 0x0, symName: __ZNSt3__123__dispatch_copy_or_moveB7v160006INS_17_ClassicAlgPolicyENS_11__move_loopIS1_EENS_14__move_trivialEP6MemberS6_S6_EENS_4pairIT2_T4_EES8_T3_S9_, symObjAddr: 0x8578, symBinAddr: 0x10000A660, symSize: 0x44 }
  - { offsetInCU: 0x8D68, offset: 0x1D383, size: 0x8, addend: 0x0, symName: __ZNSt3__121__unwrap_and_dispatchB7v160006INS_10__overloadINS_11__move_loopINS_17_ClassicAlgPolicyEEENS_14__move_trivialEEEP6MemberS8_S8_Li0EEENS_4pairIT0_T2_EESA_T1_SB_, symObjAddr: 0x85BC, symBinAddr: 0x10000A6A4, symSize: 0xB4 }
  - { offsetInCU: 0x8DF6, offset: 0x1D411, size: 0x8, addend: 0x0, symName: __ZNSt3__114__unwrap_rangeB7v160006IP6MemberS2_EENS_4pairIT0_S4_EET_S6_, symObjAddr: 0x8670, symBinAddr: 0x10000A758, symSize: 0x60 }
  - { offsetInCU: 0x8F16, offset: 0x1D531, size: 0x8, addend: 0x0, symName: __ZNSt3__113__unwrap_iterB7v160006IP6MemberNS_18__unwrap_iter_implIS2_Lb1EEELi0EEEDTclsrT0_8__unwrapclsr3stdE7declvalIT_EEEES6_, symObjAddr: 0x8760, symBinAddr: 0x10000A848, symSize: 0x24 }
  - { offsetInCU: 0x8F5A, offset: 0x1D575, size: 0x8, addend: 0x0, symName: __ZNSt3__19make_pairB7v160006IP6MemberS2_EENS_4pairINS_18__unwrap_ref_decayIT_E4typeENS4_IT0_E4typeEEEOS5_OS8_, symObjAddr: 0x8784, symBinAddr: 0x10000A86C, symSize: 0x38 }
  - { offsetInCU: 0x8FA9, offset: 0x1D5C4, size: 0x8, addend: 0x0, symName: __ZNSt3__114__rewrap_rangeB7v160006IP6MemberS2_EET_S3_T0_, symObjAddr: 0x87BC, symBinAddr: 0x10000A8A4, symSize: 0x2C }
  - { offsetInCU: 0x8FF5, offset: 0x1D610, size: 0x8, addend: 0x0, symName: __ZNSt3__113__rewrap_iterB7v160006IP6MemberS2_NS_18__unwrap_iter_implIS2_Lb1EEEEET_S5_T0_, symObjAddr: 0x87E8, symBinAddr: 0x10000A8D0, symSize: 0x3C }
  - { offsetInCU: 0x90C1, offset: 0x1D6DC, size: 0x8, addend: 0x0, symName: __ZNSt3__1miB7v160006IPK11TransactionS3_EEDTmicldtfp_4baseEcldtfp0_4baseEERKNS_11__wrap_iterIT_EERKNS5_IT0_EE, symObjAddr: 0x8AE0, symBinAddr: 0x10000ABC8, symSize: 0x48 }
  - { offsetInCU: 0x910D, offset: 0x1D728, size: 0x8, addend: 0x0, symName: __ZNSt3__14moveB7v160006IP11TransactionS2_EET0_T_S4_S3_, symObjAddr: 0x8BB4, symBinAddr: 0x10000AC9C, symSize: 0x40 }
  - { offsetInCU: 0x9167, offset: 0x1D782, size: 0x8, addend: 0x0, symName: __ZNSt3__16__moveB7v160006INS_17_ClassicAlgPolicyEP11TransactionS3_S3_EENS_4pairIT0_T2_EES5_T1_S6_, symObjAddr: 0x8D48, symBinAddr: 0x10000AE30, symSize: 0x44 }
  - { offsetInCU: 0x91D3, offset: 0x1D7EE, size: 0x8, addend: 0x0, symName: __ZNSt3__123__dispatch_copy_or_moveB7v160006INS_17_ClassicAlgPolicyENS_11__move_loopIS1_EENS_14__move_trivialEP11TransactionS6_S6_EENS_4pairIT2_T4_EES8_T3_S9_, symObjAddr: 0x8D8C, symBinAddr: 0x10000AE74, symSize: 0x44 }
  - { offsetInCU: 0x9251, offset: 0x1D86C, size: 0x8, addend: 0x0, symName: __ZNSt3__121__unwrap_and_dispatchB7v160006INS_10__overloadINS_11__move_loopINS_17_ClassicAlgPolicyEEENS_14__move_trivialEEEP11TransactionS8_S8_Li0EEENS_4pairIT0_T2_EESA_T1_SB_, symObjAddr: 0x8DD0, symBinAddr: 0x10000AEB8, symSize: 0xB4 }
  - { offsetInCU: 0x92DF, offset: 0x1D8FA, size: 0x8, addend: 0x0, symName: __ZNSt3__114__unwrap_rangeB7v160006IP11TransactionS2_EENS_4pairIT0_S4_EET_S6_, symObjAddr: 0x8E84, symBinAddr: 0x10000AF6C, symSize: 0x60 }
  - { offsetInCU: 0x93FF, offset: 0x1DA1A, size: 0x8, addend: 0x0, symName: __ZNSt3__113__unwrap_iterB7v160006IP11TransactionNS_18__unwrap_iter_implIS2_Lb1EEELi0EEEDTclsrT0_8__unwrapclsr3stdE7declvalIT_EEEES6_, symObjAddr: 0x8F74, symBinAddr: 0x10000B05C, symSize: 0x24 }
  - { offsetInCU: 0x9443, offset: 0x1DA5E, size: 0x8, addend: 0x0, symName: __ZNSt3__19make_pairB7v160006IP11TransactionS2_EENS_4pairINS_18__unwrap_ref_decayIT_E4typeENS4_IT0_E4typeEEEOS5_OS8_, symObjAddr: 0x8F98, symBinAddr: 0x10000B080, symSize: 0x38 }
  - { offsetInCU: 0x9492, offset: 0x1DAAD, size: 0x8, addend: 0x0, symName: __ZNSt3__114__rewrap_rangeB7v160006IP11TransactionS2_EET_S3_T0_, symObjAddr: 0x8FD0, symBinAddr: 0x10000B0B8, symSize: 0x2C }
  - { offsetInCU: 0x94DE, offset: 0x1DAF9, size: 0x8, addend: 0x0, symName: __ZNSt3__113__rewrap_iterB7v160006IP11TransactionS2_NS_18__unwrap_iter_implIS2_Lb1EEEEET_S5_T0_, symObjAddr: 0x8FFC, symBinAddr: 0x10000B0E4, symSize: 0x3C }
  - { offsetInCU: 0x9DC5, offset: 0x1E3E0, size: 0x8, addend: 0x0, symName: __ZNSt3__16vectorI6MemberNS_9allocatorIS1_EEE26__swap_out_circular_bufferERNS_14__split_bufferIS1_RS3_EE, symObjAddr: 0x4998, symBinAddr: 0x100007608, symSize: 0x118 }
  - { offsetInCU: 0xA19D, offset: 0x1E7B8, size: 0x8, addend: 0x0, symName: __ZNSt3__16vectorI11TransactionNS_9allocatorIS1_EEE26__swap_out_circular_bufferERNS_14__split_bufferIS1_RS3_EE, symObjAddr: 0x6280, symBinAddr: 0x100008EF0, symSize: 0x118 }
  - { offsetInCU: 0xC12E, offset: 0x20749, size: 0x8, addend: 0x0, symName: __ZN7LibraryC2Ev, symObjAddr: 0x0, symBinAddr: 0x100005718, symSize: 0x44 }
  - { offsetInCU: 0xC159, offset: 0x20774, size: 0x8, addend: 0x0, symName: __ZNSt3__16vectorI4BookNS_9allocatorIS1_EEEC1B7v160006Ev, symObjAddr: 0x44, symBinAddr: 0x10000575C, symSize: 0x2C }
  - { offsetInCU: 0xC182, offset: 0x2079D, size: 0x8, addend: 0x0, symName: __ZNSt3__16vectorI6MemberNS_9allocatorIS1_EEEC1B7v160006Ev, symObjAddr: 0x70, symBinAddr: 0x100005788, symSize: 0x2C }
  - { offsetInCU: 0xC1AB, offset: 0x207C6, size: 0x8, addend: 0x0, symName: __ZNSt3__16vectorI11TransactionNS_9allocatorIS1_EEEC1B7v160006Ev, symObjAddr: 0x9C, symBinAddr: 0x1000057B4, symSize: 0x2C }
  - { offsetInCU: 0xC1D4, offset: 0x207EF, size: 0x8, addend: 0x0, symName: __ZN7LibraryC1Ev, symObjAddr: 0xC8, symBinAddr: 0x1000057E0, symSize: 0x2C }
  - { offsetInCU: 0xC1FF, offset: 0x2081A, size: 0x8, addend: 0x0, symName: __ZNK7Library12viewAllBooksEv, symObjAddr: 0xF4, symBinAddr: 0x10000580C, symSize: 0x98 }
  - { offsetInCU: 0xC279, offset: 0x20894, size: 0x8, addend: 0x0, symName: __ZNK7Library14viewAllMembersEv, symObjAddr: 0x324, symBinAddr: 0x1000058A4, symSize: 0x9C }
  - { offsetInCU: 0xC2F2, offset: 0x2090D, size: 0x8, addend: 0x0, symName: __ZNKSt3__16vectorI6MemberNS_9allocatorIS1_EEE5beginB7v160006Ev, symObjAddr: 0x3C0, symBinAddr: 0x100005940, symSize: 0x30 }
  - { offsetInCU: 0xC318, offset: 0x20933, size: 0x8, addend: 0x0, symName: __ZNKSt3__16vectorI6MemberNS_9allocatorIS1_EEE3endB7v160006Ev, symObjAddr: 0x3F0, symBinAddr: 0x100005970, symSize: 0x30 }
  - { offsetInCU: 0xC33F, offset: 0x2095A, size: 0x8, addend: 0x0, symName: __ZNKSt3__111__wrap_iterIPK6MemberEdeB7v160006Ev, symObjAddr: 0x454, symBinAddr: 0x1000059D4, symSize: 0x18 }
  - { offsetInCU: 0xC364, offset: 0x2097F, size: 0x8, addend: 0x0, symName: __ZNSt3__111__wrap_iterIPK6MemberEppB7v160006Ev, symObjAddr: 0x46C, symBinAddr: 0x1000059EC, symSize: 0x20 }
  - { offsetInCU: 0xC389, offset: 0x209A4, size: 0x8, addend: 0x0, symName: __ZNK7Library19viewAllTransactionsEv, symObjAddr: 0x48C, symBinAddr: 0x100005A0C, symSize: 0x9C }
  - { offsetInCU: 0xC402, offset: 0x20A1D, size: 0x8, addend: 0x0, symName: __ZNKSt3__16vectorI11TransactionNS_9allocatorIS1_EEE5beginB7v160006Ev, symObjAddr: 0x528, symBinAddr: 0x100005AA8, symSize: 0x30 }
  - { offsetInCU: 0xC428, offset: 0x20A43, size: 0x8, addend: 0x0, symName: __ZNKSt3__16vectorI11TransactionNS_9allocatorIS1_EEE3endB7v160006Ev, symObjAddr: 0x558, symBinAddr: 0x100005AD8, symSize: 0x30 }
  - { offsetInCU: 0xC44F, offset: 0x20A6A, size: 0x8, addend: 0x0, symName: __ZNKSt3__111__wrap_iterIPK11TransactionEdeB7v160006Ev, symObjAddr: 0x5BC, symBinAddr: 0x100005B3C, symSize: 0x18 }
  - { offsetInCU: 0xC474, offset: 0x20A8F, size: 0x8, addend: 0x0, symName: __ZNSt3__111__wrap_iterIPK11TransactionEppB7v160006Ev, symObjAddr: 0x5D4, symBinAddr: 0x100005B54, symSize: 0x20 }
  - { offsetInCU: 0xC499, offset: 0x20AB4, size: 0x8, addend: 0x0, symName: __ZN7Library7addBookERK4Book, symObjAddr: 0x5F4, symBinAddr: 0x100005B74, symSize: 0x4C }
  - { offsetInCU: 0xC4CD, offset: 0x20AE8, size: 0x8, addend: 0x0, symName: __ZNSt3__16vectorI4BookNS_9allocatorIS1_EEE9push_backB7v160006ERKS1_, symObjAddr: 0x640, symBinAddr: 0x100005BC0, symSize: 0x6C }
  - { offsetInCU: 0xC503, offset: 0x20B1E, size: 0x8, addend: 0x0, symName: __ZN7Library9addMemberERK6Member, symObjAddr: 0x6AC, symBinAddr: 0x100005C2C, symSize: 0x50 }
  - { offsetInCU: 0xC537, offset: 0x20B52, size: 0x8, addend: 0x0, symName: __ZNSt3__16vectorI6MemberNS_9allocatorIS1_EEE9push_backB7v160006ERKS1_, symObjAddr: 0x6FC, symBinAddr: 0x100005C7C, symSize: 0x6C }
  - { offsetInCU: 0xC56D, offset: 0x20B88, size: 0x8, addend: 0x0, symName: __ZN7Library14addTransactionERK11Transaction, symObjAddr: 0x768, symBinAddr: 0x100005CE8, symSize: 0x50 }
  - { offsetInCU: 0xC5A1, offset: 0x20BBC, size: 0x8, addend: 0x0, symName: __ZNSt3__16vectorI11TransactionNS_9allocatorIS1_EEE9push_backB7v160006ERKS1_, symObjAddr: 0x7B8, symBinAddr: 0x100005D38, symSize: 0x6C }
  - { offsetInCU: 0xC5D7, offset: 0x20BF2, size: 0x8, addend: 0x0, symName: __ZN7Library10deleteBookEi, symObjAddr: 0x824, symBinAddr: 0x100005DA4, symSize: 0xF8 }
  - { offsetInCU: 0xC64A, offset: 0x20C65, size: 0x8, addend: 0x0, symName: __ZN7Library12deleteMemberEi, symObjAddr: 0xB14, symBinAddr: 0x100005F18, symSize: 0x108 }
  - { offsetInCU: 0xC6B7, offset: 0x20CD2, size: 0x8, addend: 0x0, symName: __ZNSt3__16vectorI6MemberNS_9allocatorIS1_EEE5beginB7v160006Ev, symObjAddr: 0xC98, symBinAddr: 0x10000609C, symSize: 0x30 }
  - { offsetInCU: 0xC6DD, offset: 0x20CF8, size: 0x8, addend: 0x0, symName: __ZNSt3__16vectorI6MemberNS_9allocatorIS1_EEE3endB7v160006Ev, symObjAddr: 0xCC8, symBinAddr: 0x1000060CC, symSize: 0x30 }
  - { offsetInCU: 0xC703, offset: 0x20D1E, size: 0x8, addend: 0x0, symName: __ZNSt3__16vectorI6MemberNS_9allocatorIS1_EEE5eraseB7v160006ENS_11__wrap_iterIPKS1_EE, symObjAddr: 0xD2C, symBinAddr: 0x100006130, symSize: 0xAC }
  - { offsetInCU: 0xC75C, offset: 0x20D77, size: 0x8, addend: 0x0, symName: __ZNSt3__111__wrap_iterIPK6MemberEC1B7v160006IPS1_EERKNS0_IT_EEPNS_9enable_ifIXsr14is_convertibleIS7_S3_EE5valueEvE4typeE, symObjAddr: 0xDD8, symBinAddr: 0x1000061DC, symSize: 0x3C }
  - { offsetInCU: 0xC7A7, offset: 0x20DC2, size: 0x8, addend: 0x0, symName: __ZN7Library17deleteTransactionEi, symObjAddr: 0xE14, symBinAddr: 0x100006218, symSize: 0x108 }
  - { offsetInCU: 0xC814, offset: 0x20E2F, size: 0x8, addend: 0x0, symName: __ZNSt3__16vectorI11TransactionNS_9allocatorIS1_EEE5beginB7v160006Ev, symObjAddr: 0xF98, symBinAddr: 0x10000639C, symSize: 0x30 }
  - { offsetInCU: 0xC83A, offset: 0x20E55, size: 0x8, addend: 0x0, symName: __ZNSt3__16vectorI11TransactionNS_9allocatorIS1_EEE3endB7v160006Ev, symObjAddr: 0xFC8, symBinAddr: 0x1000063CC, symSize: 0x30 }
  - { offsetInCU: 0xC860, offset: 0x20E7B, size: 0x8, addend: 0x0, symName: __ZNSt3__16vectorI11TransactionNS_9allocatorIS1_EEE5eraseB7v160006ENS_11__wrap_iterIPKS1_EE, symObjAddr: 0x102C, symBinAddr: 0x100006430, symSize: 0xA4 }
  - { offsetInCU: 0xC8B9, offset: 0x20ED4, size: 0x8, addend: 0x0, symName: __ZNSt3__111__wrap_iterIPK11TransactionEC1B7v160006IPS1_EERKNS0_IT_EEPNS_9enable_ifIXsr14is_convertibleIS7_S3_EE5valueEvE4typeE, symObjAddr: 0x10D0, symBinAddr: 0x1000064D4, symSize: 0x3C }
  - { offsetInCU: 0xC904, offset: 0x20F1F, size: 0x8, addend: 0x0, symName: __ZNK7Library14generateBookIDEv, symObjAddr: 0x110C, symBinAddr: 0x100006510, symSize: 0x58 }
  - { offsetInCU: 0xC92B, offset: 0x20F46, size: 0x8, addend: 0x0, symName: __ZNKSt3__16vectorI4BookNS_9allocatorIS1_EEE5emptyB7v160006Ev, symObjAddr: 0x1164, symBinAddr: 0x100006568, symSize: 0x28 }
  - { offsetInCU: 0xC950, offset: 0x20F6B, size: 0x8, addend: 0x0, symName: __ZNKSt3__16vectorI4BookNS_9allocatorIS1_EEE4backB7v160006Ev, symObjAddr: 0x118C, symBinAddr: 0x100006590, symSize: 0x1C }
  - { offsetInCU: 0xC975, offset: 0x20F90, size: 0x8, addend: 0x0, symName: __ZNK7Library16generateMemberIDEv, symObjAddr: 0x11A8, symBinAddr: 0x1000065AC, symSize: 0x60 }
  - { offsetInCU: 0xC99C, offset: 0x20FB7, size: 0x8, addend: 0x0, symName: __ZNKSt3__16vectorI6MemberNS_9allocatorIS1_EEE5emptyB7v160006Ev, symObjAddr: 0x1208, symBinAddr: 0x10000660C, symSize: 0x28 }
  - { offsetInCU: 0xC9C1, offset: 0x20FDC, size: 0x8, addend: 0x0, symName: __ZNKSt3__16vectorI6MemberNS_9allocatorIS1_EEE4backB7v160006Ev, symObjAddr: 0x1230, symBinAddr: 0x100006634, symSize: 0x1C }
  - { offsetInCU: 0xC9E6, offset: 0x21001, size: 0x8, addend: 0x0, symName: __ZNK7Library21generateTransactionIDEv, symObjAddr: 0x124C, symBinAddr: 0x100006650, symSize: 0x60 }
  - { offsetInCU: 0xCA0D, offset: 0x21028, size: 0x8, addend: 0x0, symName: __ZNKSt3__16vectorI11TransactionNS_9allocatorIS1_EEE5emptyB7v160006Ev, symObjAddr: 0x12AC, symBinAddr: 0x1000066B0, symSize: 0x28 }
  - { offsetInCU: 0xCA32, offset: 0x2104D, size: 0x8, addend: 0x0, symName: __ZNKSt3__16vectorI11TransactionNS_9allocatorIS1_EEE4backB7v160006Ev, symObjAddr: 0x12D4, symBinAddr: 0x1000066D8, symSize: 0x1C }
  - { offsetInCU: 0xCA57, offset: 0x21072, size: 0x8, addend: 0x0, symName: __ZNKSt3__111__wrap_iterIPK6MemberE4baseB7v160006Ev, symObjAddr: 0x1398, symBinAddr: 0x10000673C, symSize: 0x18 }
  - { offsetInCU: 0xCA7C, offset: 0x21097, size: 0x8, addend: 0x0, symName: __ZNKSt3__111__wrap_iterIPK11TransactionE4baseB7v160006Ev, symObjAddr: 0x13F8, symBinAddr: 0x10000679C, symSize: 0x18 }
  - { offsetInCU: 0xCAA1, offset: 0x210BC, size: 0x8, addend: 0x0, symName: __ZNKSt3__111__wrap_iterIP6MemberE4baseB7v160006Ev, symObjAddr: 0x14B8, symBinAddr: 0x1000067FC, symSize: 0x18 }
  - { offsetInCU: 0xCAC6, offset: 0x210E1, size: 0x8, addend: 0x0, symName: __ZNKSt3__111__wrap_iterIP11TransactionE4baseB7v160006Ev, symObjAddr: 0x1518, symBinAddr: 0x10000685C, symSize: 0x18 }
  - { offsetInCU: 0xCAEB, offset: 0x21106, size: 0x8, addend: 0x0, symName: __ZNSt3__16vectorI4BookNS_9allocatorIS1_EEEC2B7v160006Ev, symObjAddr: 0x1530, symBinAddr: 0x100006874, symSize: 0x58 }
  - { offsetInCU: 0xCB1E, offset: 0x21139, size: 0x8, addend: 0x0, symName: __ZNSt3__117__compressed_pairIP4BookNS_9allocatorIS1_EEEC1B7v160006IDnNS_18__default_init_tagEEEOT_OT0_, symObjAddr: 0x1588, symBinAddr: 0x1000068CC, symSize: 0x3C }
  - { offsetInCU: 0xCB75, offset: 0x21190, size: 0x8, addend: 0x0, symName: __ZNSt3__117__compressed_pairIP4BookNS_9allocatorIS1_EEEC2B7v160006IDnNS_18__default_init_tagEEEOT_OT0_, symObjAddr: 0x15E0, symBinAddr: 0x100006918, symSize: 0x40 }
  - { offsetInCU: 0xCBCC, offset: 0x211E7, size: 0x8, addend: 0x0, symName: __ZNSt3__122__compressed_pair_elemINS_9allocatorI4BookEELi1ELb1EEC2B7v160006ENS_18__default_init_tagE, symObjAddr: 0x163C, symBinAddr: 0x100006958, symSize: 0x2C }
  - { offsetInCU: 0xCC00, offset: 0x2121B, size: 0x8, addend: 0x0, symName: __ZNSt3__19allocatorI4BookEC2B7v160006Ev, symObjAddr: 0x1668, symBinAddr: 0x100006984, symSize: 0x2C }
  - { offsetInCU: 0xCC29, offset: 0x21244, size: 0x8, addend: 0x0, symName: __ZNSt3__116__non_trivial_ifILb1ENS_9allocatorI4BookEEEC2B7v160006Ev, symObjAddr: 0x1694, symBinAddr: 0x1000069B0, symSize: 0x14 }
  - { offsetInCU: 0xCC52, offset: 0x2126D, size: 0x8, addend: 0x0, symName: __ZNSt3__16vectorI6MemberNS_9allocatorIS1_EEEC2B7v160006Ev, symObjAddr: 0x16A8, symBinAddr: 0x1000069C4, symSize: 0x58 }
  - { offsetInCU: 0xCC7B, offset: 0x21296, size: 0x8, addend: 0x0, symName: __ZNSt3__117__compressed_pairIP6MemberNS_9allocatorIS1_EEEC1B7v160006IDnNS_18__default_init_tagEEEOT_OT0_, symObjAddr: 0x1700, symBinAddr: 0x100006A1C, symSize: 0x3C }
  - { offsetInCU: 0xCCD2, offset: 0x212ED, size: 0x8, addend: 0x0, symName: __ZNSt3__117__compressed_pairIP6MemberNS_9allocatorIS1_EEEC2B7v160006IDnNS_18__default_init_tagEEEOT_OT0_, symObjAddr: 0x174C, symBinAddr: 0x100006A68, symSize: 0x40 }
  - { offsetInCU: 0xCD29, offset: 0x21344, size: 0x8, addend: 0x0, symName: __ZNSt3__122__compressed_pair_elemIP6MemberLi0ELb0EEC2B7v160006IDnvEEOT_, symObjAddr: 0x178C, symBinAddr: 0x100006AA8, symSize: 0x1C }
  - { offsetInCU: 0xCD6A, offset: 0x21385, size: 0x8, addend: 0x0, symName: __ZNSt3__122__compressed_pair_elemINS_9allocatorI6MemberEELi1ELb1EEC2B7v160006ENS_18__default_init_tagE, symObjAddr: 0x17A8, symBinAddr: 0x100006AC4, symSize: 0x2C }
  - { offsetInCU: 0xCD9E, offset: 0x213B9, size: 0x8, addend: 0x0, symName: __ZNSt3__19allocatorI6MemberEC2B7v160006Ev, symObjAddr: 0x17D4, symBinAddr: 0x100006AF0, symSize: 0x2C }
  - { offsetInCU: 0xCDC7, offset: 0x213E2, size: 0x8, addend: 0x0, symName: __ZNSt3__116__non_trivial_ifILb1ENS_9allocatorI6MemberEEEC2B7v160006Ev, symObjAddr: 0x1800, symBinAddr: 0x100006B1C, symSize: 0x14 }
  - { offsetInCU: 0xCDF0, offset: 0x2140B, size: 0x8, addend: 0x0, symName: __ZNSt3__16vectorI11TransactionNS_9allocatorIS1_EEEC2B7v160006Ev, symObjAddr: 0x1814, symBinAddr: 0x100006B30, symSize: 0x58 }
  - { offsetInCU: 0xCE19, offset: 0x21434, size: 0x8, addend: 0x0, symName: __ZNSt3__117__compressed_pairIP11TransactionNS_9allocatorIS1_EEEC1B7v160006IDnNS_18__default_init_tagEEEOT_OT0_, symObjAddr: 0x186C, symBinAddr: 0x100006B88, symSize: 0x3C }
  - { offsetInCU: 0xCE70, offset: 0x2148B, size: 0x8, addend: 0x0, symName: __ZNSt3__117__compressed_pairIP11TransactionNS_9allocatorIS1_EEEC2B7v160006IDnNS_18__default_init_tagEEEOT_OT0_, symObjAddr: 0x18B8, symBinAddr: 0x100006BD4, symSize: 0x40 }
  - { offsetInCU: 0xCEC7, offset: 0x214E2, size: 0x8, addend: 0x0, symName: __ZNSt3__122__compressed_pair_elemIP11TransactionLi0ELb0EEC2B7v160006IDnvEEOT_, symObjAddr: 0x18F8, symBinAddr: 0x100006C14, symSize: 0x1C }
  - { offsetInCU: 0xCF08, offset: 0x21523, size: 0x8, addend: 0x0, symName: __ZNSt3__122__compressed_pair_elemINS_9allocatorI11TransactionEELi1ELb1EEC2B7v160006ENS_18__default_init_tagE, symObjAddr: 0x1914, symBinAddr: 0x100006C30, symSize: 0x2C }
  - { offsetInCU: 0xCF3C, offset: 0x21557, size: 0x8, addend: 0x0, symName: __ZNSt3__19allocatorI11TransactionEC2B7v160006Ev, symObjAddr: 0x1940, symBinAddr: 0x100006C5C, symSize: 0x2C }
  - { offsetInCU: 0xCF65, offset: 0x21580, size: 0x8, addend: 0x0, symName: __ZNSt3__116__non_trivial_ifILb1ENS_9allocatorI11TransactionEEEC2B7v160006Ev, symObjAddr: 0x196C, symBinAddr: 0x100006C88, symSize: 0x14 }
  - { offsetInCU: 0xCF8E, offset: 0x215A9, size: 0x8, addend: 0x0, symName: __ZNKSt3__16vectorI6MemberNS_9allocatorIS1_EEE11__make_iterB7v160006EPKS1_, symObjAddr: 0x250C, symBinAddr: 0x100006C9C, symSize: 0x34 }
  - { offsetInCU: 0xCFC2, offset: 0x215DD, size: 0x8, addend: 0x0, symName: __ZNSt3__111__wrap_iterIPK6MemberEC1B7v160006EPKvS3_, symObjAddr: 0x2540, symBinAddr: 0x100006CD0, symSize: 0x3C }
  - { offsetInCU: 0xD007, offset: 0x21622, size: 0x8, addend: 0x0, symName: __ZNSt3__111__wrap_iterIPK6MemberEC2B7v160006EPKvS3_, symObjAddr: 0x257C, symBinAddr: 0x100006D0C, symSize: 0x24 }
  - { offsetInCU: 0xD04C, offset: 0x21667, size: 0x8, addend: 0x0, symName: __ZNKSt3__16vectorI11TransactionNS_9allocatorIS1_EEE11__make_iterB7v160006EPKS1_, symObjAddr: 0x25A0, symBinAddr: 0x100006D30, symSize: 0x34 }
  - { offsetInCU: 0xD080, offset: 0x2169B, size: 0x8, addend: 0x0, symName: __ZNSt3__111__wrap_iterIPK11TransactionEC1B7v160006EPKvS3_, symObjAddr: 0x25D4, symBinAddr: 0x100006D64, symSize: 0x3C }
  - { offsetInCU: 0xD0C5, offset: 0x216E0, size: 0x8, addend: 0x0, symName: __ZNSt3__111__wrap_iterIPK11TransactionEC2B7v160006EPKvS3_, symObjAddr: 0x2610, symBinAddr: 0x100006DA0, symSize: 0x24 }
  - { offsetInCU: 0xD10A, offset: 0x21725, size: 0x8, addend: 0x0, symName: __ZNSt3__16vectorI4BookNS_9allocatorIS1_EEE22__construct_one_at_endB7v160006IJRKS1_EEEvDpOT_, symObjAddr: 0x265C, symBinAddr: 0x100006DC4, symSize: 0x90 }
  - { offsetInCU: 0xD157, offset: 0x21772, size: 0x8, addend: 0x0, symName: __ZNSt3__16vectorI4BookNS_9allocatorIS1_EEE21__push_back_slow_pathIRKS1_EEvOT_, symObjAddr: 0x26EC, symBinAddr: 0x100006E54, symSize: 0xD8 }
  - { offsetInCU: 0xD1CD, offset: 0x217E8, size: 0x8, addend: 0x0, symName: __ZNSt3__116allocator_traitsINS_9allocatorI4BookEEE9constructB7v160006IS2_JRKS2_EvEEvRS3_PT_DpOT0_, symObjAddr: 0x2838, symBinAddr: 0x100006F2C, symSize: 0x34 }
  - { offsetInCU: 0xD224, offset: 0x2183F, size: 0x8, addend: 0x0, symName: __ZNSt3__19allocatorI4BookE9constructB7v160006IS1_JRKS1_EEEvPT_DpOT0_, symObjAddr: 0x2920, symBinAddr: 0x100006F60, symSize: 0x30 }
  - { offsetInCU: 0xD279, offset: 0x21894, size: 0x8, addend: 0x0, symName: __ZN4BookC1ERKS_, symObjAddr: 0x2950, symBinAddr: 0x100006F90, symSize: 0x34 }
  - { offsetInCU: 0xD2AD, offset: 0x218C8, size: 0x8, addend: 0x0, symName: __ZN4BookC2ERKS_, symObjAddr: 0x2984, symBinAddr: 0x100006FC4, symSize: 0x100 }
  - { offsetInCU: 0xD2F0, offset: 0x2190B, size: 0x8, addend: 0x0, symName: __ZNSt3__16vectorI6MemberNS_9allocatorIS1_EEE9__end_capB7v160006Ev, symObjAddr: 0x4454, symBinAddr: 0x1000070C4, symSize: 0x28 }
  - { offsetInCU: 0xD315, offset: 0x21930, size: 0x8, addend: 0x0, symName: __ZNSt3__16vectorI6MemberNS_9allocatorIS1_EEE22__construct_one_at_endB7v160006IJRKS1_EEEvDpOT_, symObjAddr: 0x447C, symBinAddr: 0x1000070EC, symSize: 0x90 }
  - { offsetInCU: 0xD362, offset: 0x2197D, size: 0x8, addend: 0x0, symName: __ZNSt3__16vectorI6MemberNS_9allocatorIS1_EEE21__push_back_slow_pathIRKS1_EEvOT_, symObjAddr: 0x450C, symBinAddr: 0x10000717C, symSize: 0xD8 }
  - { offsetInCU: 0xD3BF, offset: 0x219DA, size: 0x8, addend: 0x0, symName: __ZNSt3__117__compressed_pairIP6MemberNS_9allocatorIS1_EEE5firstB7v160006Ev, symObjAddr: 0x45E4, symBinAddr: 0x100007254, symSize: 0x24 }
  - { offsetInCU: 0xD3E4, offset: 0x219FF, size: 0x8, addend: 0x0, symName: __ZNSt3__122__compressed_pair_elemIP6MemberLi0ELb0EE5__getB7v160006Ev, symObjAddr: 0x4608, symBinAddr: 0x100007278, symSize: 0x14 }
  - { offsetInCU: 0xD422, offset: 0x21A3D, size: 0x8, addend: 0x0, symName: __ZNSt3__16vectorI6MemberNS_9allocatorIS1_EEE21_ConstructTransactionC1B7v160006ERS4_m, symObjAddr: 0x461C, symBinAddr: 0x10000728C, symSize: 0x3C }
  - { offsetInCU: 0xD469, offset: 0x21A84, size: 0x8, addend: 0x0, symName: __ZNSt3__116allocator_traitsINS_9allocatorI6MemberEEE9constructB7v160006IS2_JRKS2_EvEEvRS3_PT_DpOT0_, symObjAddr: 0x4658, symBinAddr: 0x1000072C8, symSize: 0x34 }
  - { offsetInCU: 0xD4C0, offset: 0x21ADB, size: 0x8, addend: 0x0, symName: __ZNSt3__16vectorI6MemberNS_9allocatorIS1_EEE7__allocB7v160006Ev, symObjAddr: 0x468C, symBinAddr: 0x1000072FC, symSize: 0x28 }
  - { offsetInCU: 0xD4E5, offset: 0x21B00, size: 0x8, addend: 0x0, symName: __ZNSt3__16vectorI6MemberNS_9allocatorIS1_EEE21_ConstructTransactionD1B7v160006Ev, symObjAddr: 0x46C8, symBinAddr: 0x100007338, symSize: 0x2C }
  - { offsetInCU: 0xD50E, offset: 0x21B29, size: 0x8, addend: 0x0, symName: __ZNSt3__16vectorI6MemberNS_9allocatorIS1_EEE21_ConstructTransactionC2B7v160006ERS4_m, symObjAddr: 0x46F4, symBinAddr: 0x100007364, symSize: 0x4C }
  - { offsetInCU: 0xD555, offset: 0x21B70, size: 0x8, addend: 0x0, symName: __ZNSt3__19allocatorI6MemberE9constructB7v160006IS1_JRKS1_EEEvPT_DpOT0_, symObjAddr: 0x4740, symBinAddr: 0x1000073B0, symSize: 0x30 }
  - { offsetInCU: 0xD5AA, offset: 0x21BC5, size: 0x8, addend: 0x0, symName: __ZN6MemberC1ERKS_, symObjAddr: 0x4770, symBinAddr: 0x1000073E0, symSize: 0x34 }
  - { offsetInCU: 0xD5DE, offset: 0x21BF9, size: 0x8, addend: 0x0, symName: __ZN6MemberC2ERKS_, symObjAddr: 0x47A4, symBinAddr: 0x100007414, symSize: 0x7C }
  - { offsetInCU: 0xD612, offset: 0x21C2D, size: 0x8, addend: 0x0, symName: __ZNSt3__117__compressed_pairIP6MemberNS_9allocatorIS1_EEE6secondB7v160006Ev, symObjAddr: 0x4820, symBinAddr: 0x100007490, symSize: 0x24 }
  - { offsetInCU: 0xD637, offset: 0x21C52, size: 0x8, addend: 0x0, symName: __ZNSt3__122__compressed_pair_elemINS_9allocatorI6MemberEELi1ELb1EE5__getB7v160006Ev, symObjAddr: 0x4844, symBinAddr: 0x1000074B4, symSize: 0x14 }
  - { offsetInCU: 0xD65C, offset: 0x21C77, size: 0x8, addend: 0x0, symName: __ZNSt3__16vectorI6MemberNS_9allocatorIS1_EEE21_ConstructTransactionD2B7v160006Ev, symObjAddr: 0x4858, symBinAddr: 0x1000074C8, symSize: 0x20 }
  - { offsetInCU: 0xD684, offset: 0x21C9F, size: 0x8, addend: 0x0, symName: __ZNKSt3__16vectorI6MemberNS_9allocatorIS1_EEE11__recommendB7v160006Em, symObjAddr: 0x4878, symBinAddr: 0x1000074E8, symSize: 0xB4 }
  - { offsetInCU: 0xD6D8, offset: 0x21CF3, size: 0x8, addend: 0x0, symName: __ZNKSt3__16vectorI6MemberNS_9allocatorIS1_EEE4sizeB7v160006Ev, symObjAddr: 0x492C, symBinAddr: 0x10000759C, symSize: 0x28 }
  - { offsetInCU: 0xD6FD, offset: 0x21D18, size: 0x8, addend: 0x0, symName: __ZNSt3__114__split_bufferI6MemberRNS_9allocatorIS1_EEEC1EmmS4_, symObjAddr: 0x4954, symBinAddr: 0x1000075C4, symSize: 0x44 }
  - { offsetInCU: 0xD752, offset: 0x21D6D, size: 0x8, addend: 0x0, symName: __ZNSt3__114__split_bufferI6MemberRNS_9allocatorIS1_EEED1Ev, symObjAddr: 0x4AB0, symBinAddr: 0x100007720, symSize: 0x2C }
  - { offsetInCU: 0xD77C, offset: 0x21D97, size: 0x8, addend: 0x0, symName: __ZNKSt3__16vectorI6MemberNS_9allocatorIS1_EEE8max_sizeEv, symObjAddr: 0x4ADC, symBinAddr: 0x10000774C, symSize: 0x60 }
  - { offsetInCU: 0xD7A3, offset: 0x21DBE, size: 0x8, addend: 0x0, symName: __ZNKSt3__16vectorI6MemberNS_9allocatorIS1_EEE20__throw_length_errorB7v160006Ev, symObjAddr: 0x4B3C, symBinAddr: 0x1000077AC, symSize: 0x1C }
  - { offsetInCU: 0xD7C8, offset: 0x21DE3, size: 0x8, addend: 0x0, symName: __ZNKSt3__16vectorI6MemberNS_9allocatorIS1_EEE8capacityB7v160006Ev, symObjAddr: 0x4B58, symBinAddr: 0x1000077C8, symSize: 0x40 }
  - { offsetInCU: 0xD7F7, offset: 0x21E12, size: 0x8, addend: 0x0, symName: __ZNSt3__116allocator_traitsINS_9allocatorI6MemberEEE8max_sizeB7v160006IS3_vEEmRKS3_, symObjAddr: 0x4B98, symBinAddr: 0x100007808, symSize: 0x24 }
  - { offsetInCU: 0xD825, offset: 0x21E40, size: 0x8, addend: 0x0, symName: __ZNKSt3__16vectorI6MemberNS_9allocatorIS1_EEE7__allocB7v160006Ev, symObjAddr: 0x4BBC, symBinAddr: 0x10000782C, symSize: 0x28 }
  - { offsetInCU: 0xD84A, offset: 0x21E65, size: 0x8, addend: 0x0, symName: __ZNKSt3__19allocatorI6MemberE8max_sizeB7v160006Ev, symObjAddr: 0x4BE4, symBinAddr: 0x100007854, symSize: 0x20 }
  - { offsetInCU: 0xD86F, offset: 0x21E8A, size: 0x8, addend: 0x0, symName: __ZNKSt3__117__compressed_pairIP6MemberNS_9allocatorIS1_EEE6secondB7v160006Ev, symObjAddr: 0x4C04, symBinAddr: 0x100007874, symSize: 0x24 }
  - { offsetInCU: 0xD894, offset: 0x21EAF, size: 0x8, addend: 0x0, symName: __ZNKSt3__122__compressed_pair_elemINS_9allocatorI6MemberEELi1ELb1EE5__getB7v160006Ev, symObjAddr: 0x4C28, symBinAddr: 0x100007898, symSize: 0x14 }
  - { offsetInCU: 0xD8B9, offset: 0x21ED4, size: 0x8, addend: 0x0, symName: __ZNKSt3__16vectorI6MemberNS_9allocatorIS1_EEE9__end_capB7v160006Ev, symObjAddr: 0x4C3C, symBinAddr: 0x1000078AC, symSize: 0x28 }
  - { offsetInCU: 0xD8DE, offset: 0x21EF9, size: 0x8, addend: 0x0, symName: __ZNKSt3__117__compressed_pairIP6MemberNS_9allocatorIS1_EEE5firstB7v160006Ev, symObjAddr: 0x4C64, symBinAddr: 0x1000078D4, symSize: 0x24 }
  - { offsetInCU: 0xD903, offset: 0x21F1E, size: 0x8, addend: 0x0, symName: __ZNKSt3__122__compressed_pair_elemIP6MemberLi0ELb0EE5__getB7v160006Ev, symObjAddr: 0x4C88, symBinAddr: 0x1000078F8, symSize: 0x14 }
  - { offsetInCU: 0xD928, offset: 0x21F43, size: 0x8, addend: 0x0, symName: __ZNSt3__114__split_bufferI6MemberRNS_9allocatorIS1_EEEC2EmmS4_, symObjAddr: 0x4C9C, symBinAddr: 0x10000790C, symSize: 0xE0 }
  - { offsetInCU: 0xD99B, offset: 0x21FB6, size: 0x8, addend: 0x0, symName: __ZNSt3__117__compressed_pairIP6MemberRNS_9allocatorIS1_EEEC1B7v160006IDnS5_EEOT_OT0_, symObjAddr: 0x4D7C, symBinAddr: 0x1000079EC, symSize: 0x3C }
  - { offsetInCU: 0xD9F2, offset: 0x2200D, size: 0x8, addend: 0x0, symName: __ZNSt3__114__split_bufferI6MemberRNS_9allocatorIS1_EEE7__allocB7v160006Ev, symObjAddr: 0x4DF8, symBinAddr: 0x100007A68, symSize: 0x28 }
  - { offsetInCU: 0xDA17, offset: 0x22032, size: 0x8, addend: 0x0, symName: __ZNSt3__114__split_bufferI6MemberRNS_9allocatorIS1_EEE9__end_capB7v160006Ev, symObjAddr: 0x4E20, symBinAddr: 0x100007A90, symSize: 0x28 }
  - { offsetInCU: 0xDA3C, offset: 0x22057, size: 0x8, addend: 0x0, symName: __ZNSt3__117__compressed_pairIP6MemberRNS_9allocatorIS1_EEEC2B7v160006IDnS5_EEOT_OT0_, symObjAddr: 0x4E48, symBinAddr: 0x100007AB8, symSize: 0x48 }
  - { offsetInCU: 0xDA93, offset: 0x220AE, size: 0x8, addend: 0x0, symName: __ZNSt3__122__compressed_pair_elemIRNS_9allocatorI6MemberEELi1ELb0EEC2B7v160006IS4_vEEOT_, symObjAddr: 0x4E90, symBinAddr: 0x100007B00, symSize: 0x20 }
  - { offsetInCU: 0xDAD4, offset: 0x220EF, size: 0x8, addend: 0x0, symName: __ZNSt3__19allocatorI6MemberE8allocateB7v160006Em, symObjAddr: 0x4EB0, symBinAddr: 0x100007B20, symSize: 0x5C }
  - { offsetInCU: 0xDB07, offset: 0x22122, size: 0x8, addend: 0x0, symName: __ZNSt3__117__compressed_pairIP6MemberRNS_9allocatorIS1_EEE6secondB7v160006Ev, symObjAddr: 0x4F0C, symBinAddr: 0x100007B7C, symSize: 0x28 }
  - { offsetInCU: 0xDB2C, offset: 0x22147, size: 0x8, addend: 0x0, symName: __ZNSt3__122__compressed_pair_elemIRNS_9allocatorI6MemberEELi1ELb0EE5__getB7v160006Ev, symObjAddr: 0x4F34, symBinAddr: 0x100007BA4, symSize: 0x18 }
  - { offsetInCU: 0xDB51, offset: 0x2216C, size: 0x8, addend: 0x0, symName: __ZNSt3__117__compressed_pairIP6MemberRNS_9allocatorIS1_EEE5firstB7v160006Ev, symObjAddr: 0x4F4C, symBinAddr: 0x100007BBC, symSize: 0x24 }
  - { offsetInCU: 0xDB76, offset: 0x22191, size: 0x8, addend: 0x0, symName: __ZNKSt3__16vectorI6MemberNS_9allocatorIS1_EEE17__annotate_deleteB7v160006Ev, symObjAddr: 0x4F70, symBinAddr: 0x100007BE0, symSize: 0xD4 }
  - { offsetInCU: 0xDB9B, offset: 0x221B6, size: 0x8, addend: 0x0, symName: __ZNSt3__116reverse_iteratorIP6MemberEC1B7v160006ES2_, symObjAddr: 0x5170, symBinAddr: 0x100007DE0, symSize: 0x34 }
  - { offsetInCU: 0xDBD2, offset: 0x221ED, size: 0x8, addend: 0x0, symName: __ZNKSt3__116reverse_iteratorIP6MemberE4baseB7v160006Ev, symObjAddr: 0x51A4, symBinAddr: 0x100007E14, symSize: 0x18 }
  - { offsetInCU: 0xDBF7, offset: 0x22212, size: 0x8, addend: 0x0, symName: __ZNKSt3__16vectorI6MemberNS_9allocatorIS1_EEE14__annotate_newB7v160006Em, symObjAddr: 0x51F8, symBinAddr: 0x100007E68, symSize: 0xC8 }
  - { offsetInCU: 0xDC2B, offset: 0x22246, size: 0x8, addend: 0x0, symName: __ZNKSt3__16vectorI6MemberNS_9allocatorIS1_EEE31__annotate_contiguous_containerB7v160006EPKvS6_S6_S6_, symObjAddr: 0x52D0, symBinAddr: 0x100007F40, symSize: 0x20 }
  - { offsetInCU: 0xDC80, offset: 0x2229B, size: 0x8, addend: 0x0, symName: __ZNKSt3__16vectorI6MemberNS_9allocatorIS1_EEE4dataB7v160006Ev, symObjAddr: 0x52F0, symBinAddr: 0x100007F60, symSize: 0x28 }
  - { offsetInCU: 0xDCA5, offset: 0x222C0, size: 0x8, addend: 0x0, symName: __ZNSt3__129_AllocatorDestroyRangeReverseINS_9allocatorI6MemberEENS_16reverse_iteratorIPS2_EEEC1B7v160006ERS3_RS6_S9_, symObjAddr: 0x5364, symBinAddr: 0x100007FD4, symSize: 0x44 }
  - { offsetInCU: 0xDD00, offset: 0x2231B, size: 0x8, addend: 0x0, symName: __ZNSt3__116allocator_traitsINS_9allocatorI6MemberEEE9constructB7v160006IS2_JS2_EvEEvRS3_PT_DpOT0_, symObjAddr: 0x53F0, symBinAddr: 0x100008060, symSize: 0x34 }
  - { offsetInCU: 0xDD57, offset: 0x22372, size: 0x8, addend: 0x0, symName: __ZNKSt3__116reverse_iteratorIP6MemberEdeB7v160006Ev, symObjAddr: 0x5448, symBinAddr: 0x1000080B8, symSize: 0x28 }
  - { offsetInCU: 0xDD8A, offset: 0x223A5, size: 0x8, addend: 0x0, symName: __ZNSt3__116reverse_iteratorIP6MemberEppB7v160006Ev, symObjAddr: 0x5470, symBinAddr: 0x1000080E0, symSize: 0x20 }
  - { offsetInCU: 0xDDAF, offset: 0x223CA, size: 0x8, addend: 0x0, symName: __ZNSt3__128__exception_guard_exceptionsINS_29_AllocatorDestroyRangeReverseINS_9allocatorI6MemberEENS_16reverse_iteratorIPS3_EEEEE10__completeB7v160006Ev, symObjAddr: 0x5490, symBinAddr: 0x100008100, symSize: 0x1C }
  - { offsetInCU: 0xDDD4, offset: 0x223EF, size: 0x8, addend: 0x0, symName: __ZNSt3__128__exception_guard_exceptionsINS_29_AllocatorDestroyRangeReverseINS_9allocatorI6MemberEENS_16reverse_iteratorIPS3_EEEEED1B7v160006Ev, symObjAddr: 0x54AC, symBinAddr: 0x10000811C, symSize: 0x2C }
  - { offsetInCU: 0xDDFD, offset: 0x22418, size: 0x8, addend: 0x0, symName: __ZNSt3__128__exception_guard_exceptionsINS_29_AllocatorDestroyRangeReverseINS_9allocatorI6MemberEENS_16reverse_iteratorIPS3_EEEEEC1B7v160006ES8_, symObjAddr: 0x54D8, symBinAddr: 0x100008148, symSize: 0x34 }
  - { offsetInCU: 0xDE35, offset: 0x22450, size: 0x8, addend: 0x0, symName: __ZNSt3__128__exception_guard_exceptionsINS_29_AllocatorDestroyRangeReverseINS_9allocatorI6MemberEENS_16reverse_iteratorIPS3_EEEEEC2B7v160006ES8_, symObjAddr: 0x550C, symBinAddr: 0x10000817C, symSize: 0x30 }
  - { offsetInCU: 0xDE6D, offset: 0x22488, size: 0x8, addend: 0x0, symName: __ZNSt3__129_AllocatorDestroyRangeReverseINS_9allocatorI6MemberEENS_16reverse_iteratorIPS2_EEEC2B7v160006ERS3_RS6_S9_, symObjAddr: 0x553C, symBinAddr: 0x1000081AC, symSize: 0x38 }
  - { offsetInCU: 0xDEC3, offset: 0x224DE, size: 0x8, addend: 0x0, symName: __ZNSt3__19allocatorI6MemberE9constructB7v160006IS1_JS1_EEEvPT_DpOT0_, symObjAddr: 0x5574, symBinAddr: 0x1000081E4, symSize: 0x30 }
  - { offsetInCU: 0xDF18, offset: 0x22533, size: 0x8, addend: 0x0, symName: __ZN6MemberC1EOS_, symObjAddr: 0x55A4, symBinAddr: 0x100008214, symSize: 0x34 }
  - { offsetInCU: 0xDF4C, offset: 0x22567, size: 0x8, addend: 0x0, symName: __ZN6MemberC2EOS_, symObjAddr: 0x55D8, symBinAddr: 0x100008248, symSize: 0x54 }
  - { offsetInCU: 0xDF85, offset: 0x225A0, size: 0x8, addend: 0x0, symName: __ZNSt3__119__to_address_helperINS_16reverse_iteratorIP6MemberEEvE6__callB7v160006ERKS4_, symObjAddr: 0x562C, symBinAddr: 0x10000829C, symSize: 0x38 }
  - { offsetInCU: 0xDFA8, offset: 0x225C3, size: 0x8, addend: 0x0, symName: __ZNKSt3__116reverse_iteratorIP6MemberEptB7v160006Ev, symObjAddr: 0x5664, symBinAddr: 0x1000082D4, symSize: 0x24 }
  - { offsetInCU: 0xDFCD, offset: 0x225E8, size: 0x8, addend: 0x0, symName: __ZNSt3__128__exception_guard_exceptionsINS_29_AllocatorDestroyRangeReverseINS_9allocatorI6MemberEENS_16reverse_iteratorIPS3_EEEEED2B7v160006Ev, symObjAddr: 0x5688, symBinAddr: 0x1000082F8, symSize: 0x50 }
  - { offsetInCU: 0xDFF6, offset: 0x22611, size: 0x8, addend: 0x0, symName: __ZNKSt3__129_AllocatorDestroyRangeReverseINS_9allocatorI6MemberEENS_16reverse_iteratorIPS2_EEEclB7v160006Ev, symObjAddr: 0x56D8, symBinAddr: 0x100008348, symSize: 0xB4 }
  - { offsetInCU: 0xE01C, offset: 0x22637, size: 0x8, addend: 0x0, symName: __ZNSt3__116reverse_iteratorINS0_IP6MemberEEEC1B7v160006ES3_, symObjAddr: 0x57FC, symBinAddr: 0x10000846C, symSize: 0x3C }
  - { offsetInCU: 0xE053, offset: 0x2266E, size: 0x8, addend: 0x0, symName: __ZNSt3__116allocator_traitsINS_9allocatorI6MemberEEE7destroyB7v160006IS2_vEEvRS3_PT_, symObjAddr: 0x5898, symBinAddr: 0x100008508, symSize: 0x2C }
  - { offsetInCU: 0xE090, offset: 0x226AB, size: 0x8, addend: 0x0, symName: __ZNSt3__116reverse_iteratorINS0_IP6MemberEEEppB7v160006Ev, symObjAddr: 0x58E8, symBinAddr: 0x100008558, symSize: 0x30 }
  - { offsetInCU: 0xE0B5, offset: 0x226D0, size: 0x8, addend: 0x0, symName: __ZNKSt3__116reverse_iteratorINS0_IP6MemberEEE4baseB7v160006Ev, symObjAddr: 0x5918, symBinAddr: 0x100008588, symSize: 0x24 }
  - { offsetInCU: 0xE0DA, offset: 0x226F5, size: 0x8, addend: 0x0, symName: __ZNSt3__19allocatorI6MemberE7destroyB7v160006EPS1_, symObjAddr: 0x593C, symBinAddr: 0x1000085AC, symSize: 0x28 }
  - { offsetInCU: 0xE10D, offset: 0x22728, size: 0x8, addend: 0x0, symName: __ZN6MemberD1Ev, symObjAddr: 0x5964, symBinAddr: 0x1000085D4, symSize: 0x2C }
  - { offsetInCU: 0xE138, offset: 0x22753, size: 0x8, addend: 0x0, symName: __ZN6MemberD2Ev, symObjAddr: 0x5990, symBinAddr: 0x100008600, symSize: 0x38 }
  - { offsetInCU: 0xE168, offset: 0x22783, size: 0x8, addend: 0x0, symName: __ZNSt3__119__to_address_helperINS_16reverse_iteratorINS1_IP6MemberEEEEvE6__callB7v160006ERKS5_, symObjAddr: 0x59C8, symBinAddr: 0x100008638, symSize: 0x38 }
  - { offsetInCU: 0xE18B, offset: 0x227A6, size: 0x8, addend: 0x0, symName: __ZNKSt3__116reverse_iteratorINS0_IP6MemberEEEptB7v160006Ev, symObjAddr: 0x5A00, symBinAddr: 0x100008670, symSize: 0x24 }
  - { offsetInCU: 0xE1B0, offset: 0x227CB, size: 0x8, addend: 0x0, symName: __ZNKSt3__116reverse_iteratorINS0_IP6MemberEEEdeB7v160006Ev, symObjAddr: 0x5A24, symBinAddr: 0x100008694, symSize: 0x34 }
  - { offsetInCU: 0xE1E3, offset: 0x227FE, size: 0x8, addend: 0x0, symName: __ZNSt3__116reverse_iteratorIP6MemberEmmB7v160006Ev, symObjAddr: 0x5A58, symBinAddr: 0x1000086C8, symSize: 0x20 }
  - { offsetInCU: 0xE208, offset: 0x22823, size: 0x8, addend: 0x0, symName: __ZNSt3__116reverse_iteratorINS0_IP6MemberEEEC2B7v160006ES3_, symObjAddr: 0x5A78, symBinAddr: 0x1000086E8, symSize: 0x2C }
  - { offsetInCU: 0xE23F, offset: 0x2285A, size: 0x8, addend: 0x0, symName: __ZNSt3__116reverse_iteratorIP6MemberEC2B7v160006ES2_, symObjAddr: 0x5AA4, symBinAddr: 0x100008714, symSize: 0x28 }
  - { offsetInCU: 0xE276, offset: 0x22891, size: 0x8, addend: 0x0, symName: __ZNSt3__114__split_bufferI6MemberRNS_9allocatorIS1_EEED2Ev, symObjAddr: 0x5ACC, symBinAddr: 0x10000873C, symSize: 0x8C }
  - { offsetInCU: 0xE2A1, offset: 0x228BC, size: 0x8, addend: 0x0, symName: __ZNSt3__114__split_bufferI6MemberRNS_9allocatorIS1_EEE5clearB7v160006Ev, symObjAddr: 0x5B58, symBinAddr: 0x1000087C8, symSize: 0x28 }
  - { offsetInCU: 0xE2C6, offset: 0x228E1, size: 0x8, addend: 0x0, symName: __ZNSt3__116allocator_traitsINS_9allocatorI6MemberEEE10deallocateB7v160006ERS3_PS2_m, symObjAddr: 0x5B80, symBinAddr: 0x1000087F0, symSize: 0x34 }
  - { offsetInCU: 0xE308, offset: 0x22923, size: 0x8, addend: 0x0, symName: __ZNKSt3__114__split_bufferI6MemberRNS_9allocatorIS1_EEE8capacityB7v160006Ev, symObjAddr: 0x5BB4, symBinAddr: 0x100008824, symSize: 0x40 }
  - { offsetInCU: 0xE32D, offset: 0x22948, size: 0x8, addend: 0x0, symName: __ZNSt3__114__split_bufferI6MemberRNS_9allocatorIS1_EEE17__destruct_at_endB7v160006EPS1_, symObjAddr: 0x5BF4, symBinAddr: 0x100008864, symSize: 0x2C }
  - { offsetInCU: 0xE35F, offset: 0x2297A, size: 0x8, addend: 0x0, symName: __ZNSt3__114__split_bufferI6MemberRNS_9allocatorIS1_EEE17__destruct_at_endB7v160006EPS1_NS_17integral_constantIbLb0EEE, symObjAddr: 0x5C20, symBinAddr: 0x100008890, symSize: 0x80 }
  - { offsetInCU: 0xE39F, offset: 0x229BA, size: 0x8, addend: 0x0, symName: __ZNSt3__19allocatorI6MemberE10deallocateB7v160006EPS1_m, symObjAddr: 0x5CA0, symBinAddr: 0x100008910, symSize: 0x44 }
  - { offsetInCU: 0xE3E0, offset: 0x229FB, size: 0x8, addend: 0x0, symName: __ZNKSt3__114__split_bufferI6MemberRNS_9allocatorIS1_EEE9__end_capB7v160006Ev, symObjAddr: 0x5CE4, symBinAddr: 0x100008954, symSize: 0x28 }
  - { offsetInCU: 0xE405, offset: 0x22A20, size: 0x8, addend: 0x0, symName: __ZNKSt3__117__compressed_pairIP6MemberRNS_9allocatorIS1_EEE5firstB7v160006Ev, symObjAddr: 0x5D0C, symBinAddr: 0x10000897C, symSize: 0x24 }
  - { offsetInCU: 0xE42A, offset: 0x22A45, size: 0x8, addend: 0x0, symName: __ZNSt3__16vectorI11TransactionNS_9allocatorIS1_EEE9__end_capB7v160006Ev, symObjAddr: 0x5D30, symBinAddr: 0x1000089A0, symSize: 0x28 }
  - { offsetInCU: 0xE44F, offset: 0x22A6A, size: 0x8, addend: 0x0, symName: __ZNSt3__16vectorI11TransactionNS_9allocatorIS1_EEE22__construct_one_at_endB7v160006IJRKS1_EEEvDpOT_, symObjAddr: 0x5D58, symBinAddr: 0x1000089C8, symSize: 0x90 }
  - { offsetInCU: 0xE49C, offset: 0x22AB7, size: 0x8, addend: 0x0, symName: __ZNSt3__16vectorI11TransactionNS_9allocatorIS1_EEE21__push_back_slow_pathIRKS1_EEvOT_, symObjAddr: 0x5DE8, symBinAddr: 0x100008A58, symSize: 0xD8 }
  - { offsetInCU: 0xE4F9, offset: 0x22B14, size: 0x8, addend: 0x0, symName: __ZNSt3__117__compressed_pairIP11TransactionNS_9allocatorIS1_EEE5firstB7v160006Ev, symObjAddr: 0x5EC0, symBinAddr: 0x100008B30, symSize: 0x24 }
  - { offsetInCU: 0xE51E, offset: 0x22B39, size: 0x8, addend: 0x0, symName: __ZNSt3__122__compressed_pair_elemIP11TransactionLi0ELb0EE5__getB7v160006Ev, symObjAddr: 0x5EE4, symBinAddr: 0x100008B54, symSize: 0x14 }
  - { offsetInCU: 0xE55C, offset: 0x22B77, size: 0x8, addend: 0x0, symName: __ZNSt3__16vectorI11TransactionNS_9allocatorIS1_EEE21_ConstructTransactionC1B7v160006ERS4_m, symObjAddr: 0x5EF8, symBinAddr: 0x100008B68, symSize: 0x3C }
  - { offsetInCU: 0xE5A3, offset: 0x22BBE, size: 0x8, addend: 0x0, symName: __ZNSt3__116allocator_traitsINS_9allocatorI11TransactionEEE9constructB7v160006IS2_JRKS2_EvEEvRS3_PT_DpOT0_, symObjAddr: 0x5F34, symBinAddr: 0x100008BA4, symSize: 0x34 }
  - { offsetInCU: 0xE5FA, offset: 0x22C15, size: 0x8, addend: 0x0, symName: __ZNSt3__16vectorI11TransactionNS_9allocatorIS1_EEE7__allocB7v160006Ev, symObjAddr: 0x5F68, symBinAddr: 0x100008BD8, symSize: 0x28 }
  - { offsetInCU: 0xE61F, offset: 0x22C3A, size: 0x8, addend: 0x0, symName: __ZNSt3__16vectorI11TransactionNS_9allocatorIS1_EEE21_ConstructTransactionD1B7v160006Ev, symObjAddr: 0x5FA4, symBinAddr: 0x100008C14, symSize: 0x2C }
  - { offsetInCU: 0xE648, offset: 0x22C63, size: 0x8, addend: 0x0, symName: __ZNSt3__16vectorI11TransactionNS_9allocatorIS1_EEE21_ConstructTransactionC2B7v160006ERS4_m, symObjAddr: 0x5FD0, symBinAddr: 0x100008C40, symSize: 0x44 }
  - { offsetInCU: 0xE68F, offset: 0x22CAA, size: 0x8, addend: 0x0, symName: __ZNSt3__19allocatorI11TransactionE9constructB7v160006IS1_JRKS1_EEEvPT_DpOT0_, symObjAddr: 0x6014, symBinAddr: 0x100008C84, symSize: 0x30 }
  - { offsetInCU: 0xE6E4, offset: 0x22CFF, size: 0x8, addend: 0x0, symName: __ZN11TransactionC1ERKS_, symObjAddr: 0x6044, symBinAddr: 0x100008CB4, symSize: 0x34 }
  - { offsetInCU: 0xE718, offset: 0x22D33, size: 0x8, addend: 0x0, symName: __ZN11TransactionC2ERKS_, symObjAddr: 0x6078, symBinAddr: 0x100008CE8, symSize: 0x90 }
  - { offsetInCU: 0xE74C, offset: 0x22D67, size: 0x8, addend: 0x0, symName: __ZNSt3__117__compressed_pairIP11TransactionNS_9allocatorIS1_EEE6secondB7v160006Ev, symObjAddr: 0x6108, symBinAddr: 0x100008D78, symSize: 0x24 }
  - { offsetInCU: 0xE771, offset: 0x22D8C, size: 0x8, addend: 0x0, symName: __ZNSt3__122__compressed_pair_elemINS_9allocatorI11TransactionEELi1ELb1EE5__getB7v160006Ev, symObjAddr: 0x612C, symBinAddr: 0x100008D9C, symSize: 0x14 }
  - { offsetInCU: 0xE796, offset: 0x22DB1, size: 0x8, addend: 0x0, symName: __ZNSt3__16vectorI11TransactionNS_9allocatorIS1_EEE21_ConstructTransactionD2B7v160006Ev, symObjAddr: 0x6140, symBinAddr: 0x100008DB0, symSize: 0x20 }
  - { offsetInCU: 0xE7BE, offset: 0x22DD9, size: 0x8, addend: 0x0, symName: __ZNKSt3__16vectorI11TransactionNS_9allocatorIS1_EEE11__recommendB7v160006Em, symObjAddr: 0x6160, symBinAddr: 0x100008DD0, symSize: 0xB4 }
  - { offsetInCU: 0xE812, offset: 0x22E2D, size: 0x8, addend: 0x0, symName: __ZNKSt3__16vectorI11TransactionNS_9allocatorIS1_EEE4sizeB7v160006Ev, symObjAddr: 0x6214, symBinAddr: 0x100008E84, symSize: 0x28 }
  - { offsetInCU: 0xE837, offset: 0x22E52, size: 0x8, addend: 0x0, symName: __ZNSt3__114__split_bufferI11TransactionRNS_9allocatorIS1_EEEC1EmmS4_, symObjAddr: 0x623C, symBinAddr: 0x100008EAC, symSize: 0x44 }
  - { offsetInCU: 0xE88C, offset: 0x22EA7, size: 0x8, addend: 0x0, symName: __ZNSt3__114__split_bufferI11TransactionRNS_9allocatorIS1_EEED1Ev, symObjAddr: 0x6398, symBinAddr: 0x100009008, symSize: 0x2C }
  - { offsetInCU: 0xE8B6, offset: 0x22ED1, size: 0x8, addend: 0x0, symName: __ZNKSt3__16vectorI11TransactionNS_9allocatorIS1_EEE8max_sizeEv, symObjAddr: 0x63C4, symBinAddr: 0x100009034, symSize: 0x60 }
  - { offsetInCU: 0xE8DD, offset: 0x22EF8, size: 0x8, addend: 0x0, symName: __ZNKSt3__16vectorI11TransactionNS_9allocatorIS1_EEE20__throw_length_errorB7v160006Ev, symObjAddr: 0x6424, symBinAddr: 0x100009094, symSize: 0x1C }
  - { offsetInCU: 0xE902, offset: 0x22F1D, size: 0x8, addend: 0x0, symName: __ZNKSt3__16vectorI11TransactionNS_9allocatorIS1_EEE8capacityB7v160006Ev, symObjAddr: 0x6440, symBinAddr: 0x1000090B0, symSize: 0x40 }
  - { offsetInCU: 0xE931, offset: 0x22F4C, size: 0x8, addend: 0x0, symName: __ZNSt3__116allocator_traitsINS_9allocatorI11TransactionEEE8max_sizeB7v160006IS3_vEEmRKS3_, symObjAddr: 0x6480, symBinAddr: 0x1000090F0, symSize: 0x24 }
  - { offsetInCU: 0xE95F, offset: 0x22F7A, size: 0x8, addend: 0x0, symName: __ZNKSt3__16vectorI11TransactionNS_9allocatorIS1_EEE7__allocB7v160006Ev, symObjAddr: 0x64A4, symBinAddr: 0x100009114, symSize: 0x28 }
  - { offsetInCU: 0xE984, offset: 0x22F9F, size: 0x8, addend: 0x0, symName: __ZNKSt3__19allocatorI11TransactionE8max_sizeB7v160006Ev, symObjAddr: 0x64CC, symBinAddr: 0x10000913C, symSize: 0x14 }
  - { offsetInCU: 0xE9A9, offset: 0x22FC4, size: 0x8, addend: 0x0, symName: __ZNKSt3__117__compressed_pairIP11TransactionNS_9allocatorIS1_EEE6secondB7v160006Ev, symObjAddr: 0x64E0, symBinAddr: 0x100009150, symSize: 0x24 }
  - { offsetInCU: 0xE9CE, offset: 0x22FE9, size: 0x8, addend: 0x0, symName: __ZNKSt3__122__compressed_pair_elemINS_9allocatorI11TransactionEELi1ELb1EE5__getB7v160006Ev, symObjAddr: 0x6504, symBinAddr: 0x100009174, symSize: 0x14 }
  - { offsetInCU: 0xE9F3, offset: 0x2300E, size: 0x8, addend: 0x0, symName: __ZNKSt3__16vectorI11TransactionNS_9allocatorIS1_EEE9__end_capB7v160006Ev, symObjAddr: 0x6518, symBinAddr: 0x100009188, symSize: 0x28 }
  - { offsetInCU: 0xEA18, offset: 0x23033, size: 0x8, addend: 0x0, symName: __ZNKSt3__117__compressed_pairIP11TransactionNS_9allocatorIS1_EEE5firstB7v160006Ev, symObjAddr: 0x6540, symBinAddr: 0x1000091B0, symSize: 0x24 }
  - { offsetInCU: 0xEA3D, offset: 0x23058, size: 0x8, addend: 0x0, symName: __ZNKSt3__122__compressed_pair_elemIP11TransactionLi0ELb0EE5__getB7v160006Ev, symObjAddr: 0x6564, symBinAddr: 0x1000091D4, symSize: 0x14 }
  - { offsetInCU: 0xEA62, offset: 0x2307D, size: 0x8, addend: 0x0, symName: __ZNSt3__114__split_bufferI11TransactionRNS_9allocatorIS1_EEEC2EmmS4_, symObjAddr: 0x6578, symBinAddr: 0x1000091E8, symSize: 0xD4 }
  - { offsetInCU: 0xEAD5, offset: 0x230F0, size: 0x8, addend: 0x0, symName: __ZNSt3__117__compressed_pairIP11TransactionRNS_9allocatorIS1_EEEC1B7v160006IDnS5_EEOT_OT0_, symObjAddr: 0x664C, symBinAddr: 0x1000092BC, symSize: 0x3C }
  - { offsetInCU: 0xEB2C, offset: 0x23147, size: 0x8, addend: 0x0, symName: __ZNSt3__114__split_bufferI11TransactionRNS_9allocatorIS1_EEE7__allocB7v160006Ev, symObjAddr: 0x66C8, symBinAddr: 0x100009338, symSize: 0x28 }
  - { offsetInCU: 0xEB51, offset: 0x2316C, size: 0x8, addend: 0x0, symName: __ZNSt3__114__split_bufferI11TransactionRNS_9allocatorIS1_EEE9__end_capB7v160006Ev, symObjAddr: 0x66F0, symBinAddr: 0x100009360, symSize: 0x28 }
  - { offsetInCU: 0xEB76, offset: 0x23191, size: 0x8, addend: 0x0, symName: __ZNSt3__117__compressed_pairIP11TransactionRNS_9allocatorIS1_EEEC2B7v160006IDnS5_EEOT_OT0_, symObjAddr: 0x6718, symBinAddr: 0x100009388, symSize: 0x48 }
  - { offsetInCU: 0xEBCD, offset: 0x231E8, size: 0x8, addend: 0x0, symName: __ZNSt3__122__compressed_pair_elemIRNS_9allocatorI11TransactionEELi1ELb0EEC2B7v160006IS4_vEEOT_, symObjAddr: 0x6760, symBinAddr: 0x1000093D0, symSize: 0x20 }
  - { offsetInCU: 0xEC0E, offset: 0x23229, size: 0x8, addend: 0x0, symName: __ZNSt3__19allocatorI11TransactionE8allocateB7v160006Em, symObjAddr: 0x6780, symBinAddr: 0x1000093F0, symSize: 0x58 }
  - { offsetInCU: 0xEC41, offset: 0x2325C, size: 0x8, addend: 0x0, symName: __ZNSt3__117__compressed_pairIP11TransactionRNS_9allocatorIS1_EEE6secondB7v160006Ev, symObjAddr: 0x67D8, symBinAddr: 0x100009448, symSize: 0x28 }
  - { offsetInCU: 0xEC66, offset: 0x23281, size: 0x8, addend: 0x0, symName: __ZNSt3__122__compressed_pair_elemIRNS_9allocatorI11TransactionEELi1ELb0EE5__getB7v160006Ev, symObjAddr: 0x6800, symBinAddr: 0x100009470, symSize: 0x18 }
  - { offsetInCU: 0xEC8B, offset: 0x232A6, size: 0x8, addend: 0x0, symName: __ZNSt3__117__compressed_pairIP11TransactionRNS_9allocatorIS1_EEE5firstB7v160006Ev, symObjAddr: 0x6818, symBinAddr: 0x100009488, symSize: 0x24 }
  - { offsetInCU: 0xECB0, offset: 0x232CB, size: 0x8, addend: 0x0, symName: __ZNKSt3__16vectorI11TransactionNS_9allocatorIS1_EEE17__annotate_deleteB7v160006Ev, symObjAddr: 0x683C, symBinAddr: 0x1000094AC, symSize: 0xB8 }
  - { offsetInCU: 0xECD5, offset: 0x232F0, size: 0x8, addend: 0x0, symName: __ZNSt3__116reverse_iteratorIP11TransactionEC1B7v160006ES2_, symObjAddr: 0x6A20, symBinAddr: 0x100009690, symSize: 0x34 }
  - { offsetInCU: 0xED0C, offset: 0x23327, size: 0x8, addend: 0x0, symName: __ZNKSt3__116reverse_iteratorIP11TransactionE4baseB7v160006Ev, symObjAddr: 0x6A54, symBinAddr: 0x1000096C4, symSize: 0x18 }
  - { offsetInCU: 0xED31, offset: 0x2334C, size: 0x8, addend: 0x0, symName: __ZNKSt3__16vectorI11TransactionNS_9allocatorIS1_EEE14__annotate_newB7v160006Em, symObjAddr: 0x6AA8, symBinAddr: 0x100009718, symSize: 0xAC }
  - { offsetInCU: 0xED65, offset: 0x23380, size: 0x8, addend: 0x0, symName: __ZNKSt3__16vectorI11TransactionNS_9allocatorIS1_EEE31__annotate_contiguous_containerB7v160006EPKvS6_S6_S6_, symObjAddr: 0x6B64, symBinAddr: 0x1000097D4, symSize: 0x20 }
  - { offsetInCU: 0xEDBA, offset: 0x233D5, size: 0x8, addend: 0x0, symName: __ZNKSt3__16vectorI11TransactionNS_9allocatorIS1_EEE4dataB7v160006Ev, symObjAddr: 0x6B84, symBinAddr: 0x1000097F4, symSize: 0x28 }
  - { offsetInCU: 0xEDDF, offset: 0x233FA, size: 0x8, addend: 0x0, symName: __ZNSt3__129_AllocatorDestroyRangeReverseINS_9allocatorI11TransactionEENS_16reverse_iteratorIPS2_EEEC1B7v160006ERS3_RS6_S9_, symObjAddr: 0x6BF8, symBinAddr: 0x100009868, symSize: 0x44 }
  - { offsetInCU: 0xEE3A, offset: 0x23455, size: 0x8, addend: 0x0, symName: __ZNSt3__116allocator_traitsINS_9allocatorI11TransactionEEE9constructB7v160006IS2_JS2_EvEEvRS3_PT_DpOT0_, symObjAddr: 0x6C84, symBinAddr: 0x1000098F4, symSize: 0x34 }
  - { offsetInCU: 0xEE91, offset: 0x234AC, size: 0x8, addend: 0x0, symName: __ZNKSt3__116reverse_iteratorIP11TransactionEdeB7v160006Ev, symObjAddr: 0x6CDC, symBinAddr: 0x10000994C, symSize: 0x28 }
  - { offsetInCU: 0xEEC4, offset: 0x234DF, size: 0x8, addend: 0x0, symName: __ZNSt3__116reverse_iteratorIP11TransactionEppB7v160006Ev, symObjAddr: 0x6D04, symBinAddr: 0x100009974, symSize: 0x20 }
  - { offsetInCU: 0xEEE9, offset: 0x23504, size: 0x8, addend: 0x0, symName: __ZNSt3__128__exception_guard_exceptionsINS_29_AllocatorDestroyRangeReverseINS_9allocatorI11TransactionEENS_16reverse_iteratorIPS3_EEEEE10__completeB7v160006Ev, symObjAddr: 0x6D24, symBinAddr: 0x100009994, symSize: 0x1C }
  - { offsetInCU: 0xEF0E, offset: 0x23529, size: 0x8, addend: 0x0, symName: __ZNSt3__128__exception_guard_exceptionsINS_29_AllocatorDestroyRangeReverseINS_9allocatorI11TransactionEENS_16reverse_iteratorIPS3_EEEEED1B7v160006Ev, symObjAddr: 0x6D40, symBinAddr: 0x1000099B0, symSize: 0x2C }
  - { offsetInCU: 0xEF37, offset: 0x23552, size: 0x8, addend: 0x0, symName: __ZNSt3__128__exception_guard_exceptionsINS_29_AllocatorDestroyRangeReverseINS_9allocatorI11TransactionEENS_16reverse_iteratorIPS3_EEEEEC1B7v160006ES8_, symObjAddr: 0x6D6C, symBinAddr: 0x1000099DC, symSize: 0x34 }
  - { offsetInCU: 0xEF6F, offset: 0x2358A, size: 0x8, addend: 0x0, symName: __ZNSt3__128__exception_guard_exceptionsINS_29_AllocatorDestroyRangeReverseINS_9allocatorI11TransactionEENS_16reverse_iteratorIPS3_EEEEEC2B7v160006ES8_, symObjAddr: 0x6DA0, symBinAddr: 0x100009A10, symSize: 0x30 }
  - { offsetInCU: 0xEFA7, offset: 0x235C2, size: 0x8, addend: 0x0, symName: __ZNSt3__129_AllocatorDestroyRangeReverseINS_9allocatorI11TransactionEENS_16reverse_iteratorIPS2_EEEC2B7v160006ERS3_RS6_S9_, symObjAddr: 0x6DD0, symBinAddr: 0x100009A40, symSize: 0x38 }
  - { offsetInCU: 0xEFFD, offset: 0x23618, size: 0x8, addend: 0x0, symName: __ZNSt3__19allocatorI11TransactionE9constructB7v160006IS1_JS1_EEEvPT_DpOT0_, symObjAddr: 0x6E08, symBinAddr: 0x100009A78, symSize: 0x30 }
  - { offsetInCU: 0xF052, offset: 0x2366D, size: 0x8, addend: 0x0, symName: __ZN11TransactionC1EOS_, symObjAddr: 0x6E38, symBinAddr: 0x100009AA8, symSize: 0x34 }
  - { offsetInCU: 0xF086, offset: 0x236A1, size: 0x8, addend: 0x0, symName: __ZN11TransactionC2EOS_, symObjAddr: 0x6E6C, symBinAddr: 0x100009ADC, symSize: 0x64 }
  - { offsetInCU: 0xF0BF, offset: 0x236DA, size: 0x8, addend: 0x0, symName: __ZNSt3__119__to_address_helperINS_16reverse_iteratorIP11TransactionEEvE6__callB7v160006ERKS4_, symObjAddr: 0x6ED0, symBinAddr: 0x100009B40, symSize: 0x38 }
  - { offsetInCU: 0xF0E2, offset: 0x236FD, size: 0x8, addend: 0x0, symName: __ZNKSt3__116reverse_iteratorIP11TransactionEptB7v160006Ev, symObjAddr: 0x6F08, symBinAddr: 0x100009B78, symSize: 0x24 }
  - { offsetInCU: 0xF107, offset: 0x23722, size: 0x8, addend: 0x0, symName: __ZNSt3__128__exception_guard_exceptionsINS_29_AllocatorDestroyRangeReverseINS_9allocatorI11TransactionEENS_16reverse_iteratorIPS3_EEEEED2B7v160006Ev, symObjAddr: 0x6F2C, symBinAddr: 0x100009B9C, symSize: 0x50 }
  - { offsetInCU: 0xF130, offset: 0x2374B, size: 0x8, addend: 0x0, symName: __ZNKSt3__129_AllocatorDestroyRangeReverseINS_9allocatorI11TransactionEENS_16reverse_iteratorIPS2_EEEclB7v160006Ev, symObjAddr: 0x6F7C, symBinAddr: 0x100009BEC, symSize: 0xB4 }
  - { offsetInCU: 0xF156, offset: 0x23771, size: 0x8, addend: 0x0, symName: __ZNSt3__116reverse_iteratorINS0_IP11TransactionEEEC1B7v160006ES3_, symObjAddr: 0x70A0, symBinAddr: 0x100009D10, symSize: 0x3C }
  - { offsetInCU: 0xF18D, offset: 0x237A8, size: 0x8, addend: 0x0, symName: __ZNSt3__116allocator_traitsINS_9allocatorI11TransactionEEE7destroyB7v160006IS2_vEEvRS3_PT_, symObjAddr: 0x713C, symBinAddr: 0x100009DAC, symSize: 0x2C }
  - { offsetInCU: 0xF1CA, offset: 0x237E5, size: 0x8, addend: 0x0, symName: __ZNSt3__116reverse_iteratorINS0_IP11TransactionEEEppB7v160006Ev, symObjAddr: 0x718C, symBinAddr: 0x100009DFC, symSize: 0x30 }
  - { offsetInCU: 0xF1EF, offset: 0x2380A, size: 0x8, addend: 0x0, symName: __ZNKSt3__116reverse_iteratorINS0_IP11TransactionEEE4baseB7v160006Ev, symObjAddr: 0x71BC, symBinAddr: 0x100009E2C, symSize: 0x24 }
  - { offsetInCU: 0xF214, offset: 0x2382F, size: 0x8, addend: 0x0, symName: __ZNSt3__19allocatorI11TransactionE7destroyB7v160006EPS1_, symObjAddr: 0x71E0, symBinAddr: 0x100009E50, symSize: 0x28 }
  - { offsetInCU: 0xF247, offset: 0x23862, size: 0x8, addend: 0x0, symName: __ZN11TransactionD1Ev, symObjAddr: 0x7208, symBinAddr: 0x100009E78, symSize: 0x2C }
  - { offsetInCU: 0xF272, offset: 0x2388D, size: 0x8, addend: 0x0, symName: __ZN11TransactionD2Ev, symObjAddr: 0x7234, symBinAddr: 0x100009EA4, symSize: 0x3C }
  - { offsetInCU: 0xF2A2, offset: 0x238BD, size: 0x8, addend: 0x0, symName: __ZNSt3__119__to_address_helperINS_16reverse_iteratorINS1_IP11TransactionEEEEvE6__callB7v160006ERKS5_, symObjAddr: 0x7270, symBinAddr: 0x100009EE0, symSize: 0x38 }
  - { offsetInCU: 0xF2C5, offset: 0x238E0, size: 0x8, addend: 0x0, symName: __ZNKSt3__116reverse_iteratorINS0_IP11TransactionEEEptB7v160006Ev, symObjAddr: 0x72A8, symBinAddr: 0x100009F18, symSize: 0x24 }
  - { offsetInCU: 0xF2EA, offset: 0x23905, size: 0x8, addend: 0x0, symName: __ZNKSt3__116reverse_iteratorINS0_IP11TransactionEEEdeB7v160006Ev, symObjAddr: 0x72CC, symBinAddr: 0x100009F3C, symSize: 0x34 }
  - { offsetInCU: 0xF31D, offset: 0x23938, size: 0x8, addend: 0x0, symName: __ZNSt3__116reverse_iteratorIP11TransactionEmmB7v160006Ev, symObjAddr: 0x7300, symBinAddr: 0x100009F70, symSize: 0x20 }
  - { offsetInCU: 0xF342, offset: 0x2395D, size: 0x8, addend: 0x0, symName: __ZNSt3__116reverse_iteratorINS0_IP11TransactionEEEC2B7v160006ES3_, symObjAddr: 0x7320, symBinAddr: 0x100009F90, symSize: 0x2C }
  - { offsetInCU: 0xF379, offset: 0x23994, size: 0x8, addend: 0x0, symName: __ZNSt3__116reverse_iteratorIP11TransactionEC2B7v160006ES2_, symObjAddr: 0x734C, symBinAddr: 0x100009FBC, symSize: 0x28 }
  - { offsetInCU: 0xF3B0, offset: 0x239CB, size: 0x8, addend: 0x0, symName: __ZNSt3__114__split_bufferI11TransactionRNS_9allocatorIS1_EEED2Ev, symObjAddr: 0x7374, symBinAddr: 0x100009FE4, symSize: 0x8C }
  - { offsetInCU: 0xF3DB, offset: 0x239F6, size: 0x8, addend: 0x0, symName: __ZNSt3__114__split_bufferI11TransactionRNS_9allocatorIS1_EEE5clearB7v160006Ev, symObjAddr: 0x7400, symBinAddr: 0x10000A070, symSize: 0x28 }
  - { offsetInCU: 0xF400, offset: 0x23A1B, size: 0x8, addend: 0x0, symName: __ZNSt3__116allocator_traitsINS_9allocatorI11TransactionEEE10deallocateB7v160006ERS3_PS2_m, symObjAddr: 0x7428, symBinAddr: 0x10000A098, symSize: 0x34 }
  - { offsetInCU: 0xF442, offset: 0x23A5D, size: 0x8, addend: 0x0, symName: __ZNKSt3__114__split_bufferI11TransactionRNS_9allocatorIS1_EEE8capacityB7v160006Ev, symObjAddr: 0x745C, symBinAddr: 0x10000A0CC, symSize: 0x40 }
  - { offsetInCU: 0xF467, offset: 0x23A82, size: 0x8, addend: 0x0, symName: __ZNSt3__114__split_bufferI11TransactionRNS_9allocatorIS1_EEE17__destruct_at_endB7v160006EPS1_, symObjAddr: 0x749C, symBinAddr: 0x10000A10C, symSize: 0x2C }
  - { offsetInCU: 0xF499, offset: 0x23AB4, size: 0x8, addend: 0x0, symName: __ZNSt3__114__split_bufferI11TransactionRNS_9allocatorIS1_EEE17__destruct_at_endB7v160006EPS1_NS_17integral_constantIbLb0EEE, symObjAddr: 0x74C8, symBinAddr: 0x10000A138, symSize: 0x80 }
  - { offsetInCU: 0xF4D9, offset: 0x23AF4, size: 0x8, addend: 0x0, symName: __ZNSt3__19allocatorI11TransactionE10deallocateB7v160006EPS1_m, symObjAddr: 0x7548, symBinAddr: 0x10000A1B8, symSize: 0x40 }
  - { offsetInCU: 0xF51A, offset: 0x23B35, size: 0x8, addend: 0x0, symName: __ZNKSt3__114__split_bufferI11TransactionRNS_9allocatorIS1_EEE9__end_capB7v160006Ev, symObjAddr: 0x7588, symBinAddr: 0x10000A1F8, symSize: 0x28 }
  - { offsetInCU: 0xF53F, offset: 0x23B5A, size: 0x8, addend: 0x0, symName: __ZNKSt3__117__compressed_pairIP11TransactionRNS_9allocatorIS1_EEE5firstB7v160006Ev, symObjAddr: 0x75B0, symBinAddr: 0x10000A220, symSize: 0x24 }
  - { offsetInCU: 0xF56E, offset: 0x23B89, size: 0x8, addend: 0x0, symName: '__ZZN7Library10deleteBookEiENK3$_0clERK4Book', symObjAddr: 0x7668, symBinAddr: 0x10000A244, symSize: 0x44 }
  - { offsetInCU: 0xF5CD, offset: 0x23BE8, size: 0x8, addend: 0x0, symName: __ZNSt3__16vectorI6MemberNS_9allocatorIS1_EEE11__make_iterB7v160006EPS1_, symObjAddr: 0x81A0, symBinAddr: 0x10000A288, symSize: 0x34 }
  - { offsetInCU: 0xF601, offset: 0x23C1C, size: 0x8, addend: 0x0, symName: __ZNSt3__111__wrap_iterIP6MemberEC1B7v160006EPKvS2_, symObjAddr: 0x81D4, symBinAddr: 0x10000A2BC, symSize: 0x3C }
  - { offsetInCU: 0xF646, offset: 0x23C61, size: 0x8, addend: 0x0, symName: __ZNSt3__111__wrap_iterIP6MemberEC2B7v160006EPKvS2_, symObjAddr: 0x8210, symBinAddr: 0x10000A2F8, symSize: 0x24 }
  - { offsetInCU: 0xF695, offset: 0x23CB0, size: 0x8, addend: 0x0, symName: '__ZZN7Library12deleteMemberEiENK3$_1clERK6Member', symObjAddr: 0x8234, symBinAddr: 0x10000A31C, symSize: 0x44 }
  - { offsetInCU: 0xF6CC, offset: 0x23CE7, size: 0x8, addend: 0x0, symName: __ZNKSt3__111__wrap_iterIP6MemberEdeB7v160006Ev, symObjAddr: 0x8278, symBinAddr: 0x10000A360, symSize: 0x18 }
  - { offsetInCU: 0xF6F1, offset: 0x23D0C, size: 0x8, addend: 0x0, symName: __ZNSt3__111__wrap_iterIP6MemberEppB7v160006Ev, symObjAddr: 0x8290, symBinAddr: 0x10000A378, symSize: 0x20 }
  - { offsetInCU: 0xF716, offset: 0x23D31, size: 0x8, addend: 0x0, symName: __ZNKSt3__16vectorI6MemberNS_9allocatorIS1_EEE6cbeginB7v160006Ev, symObjAddr: 0x82F8, symBinAddr: 0x10000A3E0, symSize: 0x2C }
  - { offsetInCU: 0xF73B, offset: 0x23D56, size: 0x8, addend: 0x0, symName: __ZNSt3__16vectorI6MemberNS_9allocatorIS1_EEE17__destruct_at_endB7v160006EPS1_, symObjAddr: 0x8324, symBinAddr: 0x10000A40C, symSize: 0x60 }
  - { offsetInCU: 0xF77E, offset: 0x23D99, size: 0x8, addend: 0x0, symName: __ZNSt3__16vectorI6MemberNS_9allocatorIS1_EEE27__invalidate_iterators_pastB7v160006EPS1_, symObjAddr: 0x83C4, symBinAddr: 0x10000A4AC, symSize: 0x14 }
  - { offsetInCU: 0xF7B4, offset: 0x23DCF, size: 0x8, addend: 0x0, symName: __ZNSt3__16vectorI6MemberNS_9allocatorIS1_EEE22__base_destruct_at_endB7v160006EPS1_, symObjAddr: 0x83D8, symBinAddr: 0x10000A4C0, symSize: 0x8C }
  - { offsetInCU: 0xF7F7, offset: 0x23E12, size: 0x8, addend: 0x0, symName: __ZNKSt3__16vectorI6MemberNS_9allocatorIS1_EEE17__annotate_shrinkB7v160006Em, symObjAddr: 0x8464, symBinAddr: 0x10000A54C, symSize: 0xD0 }
  - { offsetInCU: 0xF844, offset: 0x23E5F, size: 0x8, addend: 0x0, symName: __ZNKSt3__111__move_loopINS_17_ClassicAlgPolicyEEclB7v160006IP6MemberS5_S5_EENS_4pairIT_T1_EES7_T0_S8_, symObjAddr: 0x86D0, symBinAddr: 0x10000A7B8, symSize: 0x90 }
  - { offsetInCU: 0xF8AE, offset: 0x23EC9, size: 0x8, addend: 0x0, symName: __ZNSt3__18_IterOpsINS_17_ClassicAlgPolicyEE11__iter_moveB7v160006IRP6MemberEENS_9enable_ifIXsr12is_referenceIDTdeclsr3stdE7declvalIRT_EEEEE5valueEDTclsr3stdE4movedeclsr3stdE7declvalIS9_EEEEE4typeEOS8_, symObjAddr: 0x8824, symBinAddr: 0x10000A90C, symSize: 0x28 }
  - { offsetInCU: 0xF8DA, offset: 0x23EF5, size: 0x8, addend: 0x0, symName: __ZN6MemberaSEOS_, symObjAddr: 0x884C, symBinAddr: 0x10000A934, symSize: 0x54 }
  - { offsetInCU: 0xF90A, offset: 0x23F25, size: 0x8, addend: 0x0, symName: __ZNSt3__18_IterOpsINS_17_ClassicAlgPolicyEE25__validate_iter_referenceB7v160006IRP6MemberEEvv, symObjAddr: 0x88A0, symBinAddr: 0x10000A988, symSize: 0x4 }
  - { offsetInCU: 0xF928, offset: 0x23F43, size: 0x8, addend: 0x0, symName: __ZNSt3__118__unwrap_iter_implIP6MemberLb1EE8__unwrapB7v160006ES2_, symObjAddr: 0x88A4, symBinAddr: 0x10000A98C, symSize: 0x24 }
  - { offsetInCU: 0xF950, offset: 0x23F6B, size: 0x8, addend: 0x0, symName: __ZNSt3__14pairIP6MemberS2_EC1B7v160006IS2_S2_LPv0EEEOT_OT0_, symObjAddr: 0x88C8, symBinAddr: 0x10000A9B0, symSize: 0x3C }
  - { offsetInCU: 0xF9AD, offset: 0x23FC8, size: 0x8, addend: 0x0, symName: __ZNSt3__14pairIP6MemberS2_EC2B7v160006IS2_S2_LPv0EEEOT_OT0_, symObjAddr: 0x8904, symBinAddr: 0x10000A9EC, symSize: 0x34 }
  - { offsetInCU: 0xFA0A, offset: 0x24025, size: 0x8, addend: 0x0, symName: __ZNSt3__118__unwrap_iter_implIP6MemberLb1EE8__rewrapB7v160006ES2_S2_, symObjAddr: 0x8938, symBinAddr: 0x10000AA20, symSize: 0x58 }
  - { offsetInCU: 0xFA3B, offset: 0x24056, size: 0x8, addend: 0x0, symName: __ZNSt3__111__wrap_iterIPK6MemberEC2B7v160006IPS1_EERKNS0_IT_EEPNS_9enable_ifIXsr14is_convertibleIS7_S3_EE5valueEvE4typeE, symObjAddr: 0x8990, symBinAddr: 0x10000AA78, symSize: 0x40 }
  - { offsetInCU: 0xFA86, offset: 0x240A1, size: 0x8, addend: 0x0, symName: __ZNSt3__16vectorI11TransactionNS_9allocatorIS1_EEE11__make_iterB7v160006EPS1_, symObjAddr: 0x89D0, symBinAddr: 0x10000AAB8, symSize: 0x34 }
  - { offsetInCU: 0xFABA, offset: 0x240D5, size: 0x8, addend: 0x0, symName: __ZNSt3__111__wrap_iterIP11TransactionEC1B7v160006EPKvS2_, symObjAddr: 0x8A04, symBinAddr: 0x10000AAEC, symSize: 0x3C }
  - { offsetInCU: 0xFAFF, offset: 0x2411A, size: 0x8, addend: 0x0, symName: __ZNSt3__111__wrap_iterIP11TransactionEC2B7v160006EPKvS2_, symObjAddr: 0x8A40, symBinAddr: 0x10000AB28, symSize: 0x24 }
  - { offsetInCU: 0xFB4E, offset: 0x24169, size: 0x8, addend: 0x0, symName: '__ZZN7Library17deleteTransactionEiENK3$_2clERK11Transaction', symObjAddr: 0x8A64, symBinAddr: 0x10000AB4C, symSize: 0x44 }
  - { offsetInCU: 0xFB85, offset: 0x241A0, size: 0x8, addend: 0x0, symName: __ZNKSt3__111__wrap_iterIP11TransactionEdeB7v160006Ev, symObjAddr: 0x8AA8, symBinAddr: 0x10000AB90, symSize: 0x18 }
  - { offsetInCU: 0xFBAA, offset: 0x241C5, size: 0x8, addend: 0x0, symName: __ZNSt3__111__wrap_iterIP11TransactionEppB7v160006Ev, symObjAddr: 0x8AC0, symBinAddr: 0x10000ABA8, symSize: 0x20 }
  - { offsetInCU: 0xFBCF, offset: 0x241EA, size: 0x8, addend: 0x0, symName: __ZNKSt3__16vectorI11TransactionNS_9allocatorIS1_EEE6cbeginB7v160006Ev, symObjAddr: 0x8B28, symBinAddr: 0x10000AC10, symSize: 0x2C }
  - { offsetInCU: 0xFBF4, offset: 0x2420F, size: 0x8, addend: 0x0, symName: __ZNSt3__16vectorI11TransactionNS_9allocatorIS1_EEE17__destruct_at_endB7v160006EPS1_, symObjAddr: 0x8B54, symBinAddr: 0x10000AC3C, symSize: 0x60 }
  - { offsetInCU: 0xFC37, offset: 0x24252, size: 0x8, addend: 0x0, symName: __ZNSt3__16vectorI11TransactionNS_9allocatorIS1_EEE27__invalidate_iterators_pastB7v160006EPS1_, symObjAddr: 0x8BF4, symBinAddr: 0x10000ACDC, symSize: 0x14 }
  - { offsetInCU: 0xFC6D, offset: 0x24288, size: 0x8, addend: 0x0, symName: __ZNSt3__16vectorI11TransactionNS_9allocatorIS1_EEE22__base_destruct_at_endB7v160006EPS1_, symObjAddr: 0x8C08, symBinAddr: 0x10000ACF0, symSize: 0x8C }
  - { offsetInCU: 0xFCB0, offset: 0x242CB, size: 0x8, addend: 0x0, symName: __ZNKSt3__16vectorI11TransactionNS_9allocatorIS1_EEE17__annotate_shrinkB7v160006Em, symObjAddr: 0x8C94, symBinAddr: 0x10000AD7C, symSize: 0xB4 }
  - { offsetInCU: 0xFCFD, offset: 0x24318, size: 0x8, addend: 0x0, symName: __ZNKSt3__111__move_loopINS_17_ClassicAlgPolicyEEclB7v160006IP11TransactionS5_S5_EENS_4pairIT_T1_EES7_T0_S8_, symObjAddr: 0x8EE4, symBinAddr: 0x10000AFCC, symSize: 0x90 }
  - { offsetInCU: 0xFD67, offset: 0x24382, size: 0x8, addend: 0x0, symName: __ZNSt3__18_IterOpsINS_17_ClassicAlgPolicyEE11__iter_moveB7v160006IRP11TransactionEENS_9enable_ifIXsr12is_referenceIDTdeclsr3stdE7declvalIRT_EEEEE5valueEDTclsr3stdE4movedeclsr3stdE7declvalIS9_EEEEE4typeEOS8_, symObjAddr: 0x9038, symBinAddr: 0x10000B120, symSize: 0x28 }
  - { offsetInCU: 0xFD93, offset: 0x243AE, size: 0x8, addend: 0x0, symName: __ZN11TransactionaSEOS_, symObjAddr: 0x9060, symBinAddr: 0x10000B148, symSize: 0x64 }
  - { offsetInCU: 0xFDC3, offset: 0x243DE, size: 0x8, addend: 0x0, symName: __ZNSt3__18_IterOpsINS_17_ClassicAlgPolicyEE25__validate_iter_referenceB7v160006IRP11TransactionEEvv, symObjAddr: 0x90C4, symBinAddr: 0x10000B1AC, symSize: 0x4 }
  - { offsetInCU: 0xFDE1, offset: 0x243FC, size: 0x8, addend: 0x0, symName: __ZNSt3__118__unwrap_iter_implIP11TransactionLb1EE8__unwrapB7v160006ES2_, symObjAddr: 0x90C8, symBinAddr: 0x10000B1B0, symSize: 0x24 }
  - { offsetInCU: 0xFE09, offset: 0x24424, size: 0x8, addend: 0x0, symName: __ZNSt3__14pairIP11TransactionS2_EC1B7v160006IS2_S2_LPv0EEEOT_OT0_, symObjAddr: 0x90EC, symBinAddr: 0x10000B1D4, symSize: 0x3C }
  - { offsetInCU: 0xFE66, offset: 0x24481, size: 0x8, addend: 0x0, symName: __ZNSt3__14pairIP11TransactionS2_EC2B7v160006IS2_S2_LPv0EEEOT_OT0_, symObjAddr: 0x9128, symBinAddr: 0x10000B210, symSize: 0x34 }
  - { offsetInCU: 0xFEC3, offset: 0x244DE, size: 0x8, addend: 0x0, symName: __ZNSt3__118__unwrap_iter_implIP11TransactionLb1EE8__rewrapB7v160006ES2_S2_, symObjAddr: 0x915C, symBinAddr: 0x10000B244, symSize: 0x50 }
  - { offsetInCU: 0xFEF4, offset: 0x2450F, size: 0x8, addend: 0x0, symName: __ZNSt3__111__wrap_iterIPK11TransactionEC2B7v160006IPS1_EERKNS0_IT_EEPNS_9enable_ifIXsr14is_convertibleIS7_S3_EE5valueEvE4typeE, symObjAddr: 0x91AC, symBinAddr: 0x10000B294, symSize: 0x40 }
  - { offsetInCU: 0x6B5C, offset: 0x2B1EB, size: 0x8, addend: 0x0, symName: __ZNSt3__1rsB7v160006IcNS_11char_traitsIcEENS_9allocatorIcEEEERNS_13basic_istreamIT_T0_EES9_RNS_12basic_stringIS6_S7_T1_EE, symObjAddr: 0x3E4, symBinAddr: 0x10000B5C0, symSize: 0x30C }
  - { offsetInCU: 0x71B3, offset: 0x2B842, size: 0x8, addend: 0x0, symName: __ZNSt3__118__debug_db_erase_cB7v160006INS_6vectorI4BookNS_9allocatorIS2_EEEEEEvPT_, symObjAddr: 0x37C4, symBinAddr: 0x10000D1B4, symSize: 0x10 }
  - { offsetInCU: 0x71E4, offset: 0x2B873, size: 0x8, addend: 0x0, symName: __ZNSt3__118__debug_db_erase_cB7v160006INS_6vectorI6MemberNS_9allocatorIS2_EEEEEEvPT_, symObjAddr: 0x3EC8, symBinAddr: 0x10000D320, symSize: 0x10 }
  - { offsetInCU: 0x7215, offset: 0x2B8A4, size: 0x8, addend: 0x0, symName: __ZNSt3__119__debug_db_insert_cB7v160006INS_6vectorI4UserNS_9allocatorIS2_EEEEEEvPT_, symObjAddr: 0x4270, symBinAddr: 0x10000D3EC, symSize: 0x10 }
  - { offsetInCU: 0x7246, offset: 0x2B8D5, size: 0x8, addend: 0x0, symName: __ZNSt3__118__debug_db_erase_cB7v160006INS_6vectorI4UserNS_9allocatorIS2_EEEEEEvPT_, symObjAddr: 0x4550, symBinAddr: 0x10000D6CC, symSize: 0x10 }
  - { offsetInCU: 0x7277, offset: 0x2B906, size: 0x8, addend: 0x0, symName: __ZNSt3__112__to_addressB7v160006I4UserEEPT_S3_, symObjAddr: 0x4694, symBinAddr: 0x10000D810, symSize: 0x14 }
  - { offsetInCU: 0x72AC, offset: 0x2B93B, size: 0x8, addend: 0x0, symName: __ZNSt3__118__debug_db_erase_cB7v160006INS_6vectorI11TransactionNS_9allocatorIS2_EEEEEEvPT_, symObjAddr: 0x4AE4, symBinAddr: 0x10000DBA8, symSize: 0x10 }
  - { offsetInCU: 0x9B58, offset: 0x2E1E7, size: 0x8, addend: 0x0, symName: __Z8bookMenuRNSt3__16vectorI4BookNS_9allocatorIS1_EEEERKNS_12basic_stringIcNS_11char_traitsIcEENS2_IcEEEE, symObjAddr: 0x0, symBinAddr: 0x10000B2D4, symSize: 0x2D4 }
  - { offsetInCU: 0x9BEC, offset: 0x2E27B, size: 0x8, addend: 0x0, symName: __ZNSt3__19basic_iosIcNS_11char_traitsIcEEE5clearB7v160006Ej, symObjAddr: 0x6F0, symBinAddr: 0x10000B8CC, symSize: 0x2C }
  - { offsetInCU: 0x9C1F, offset: 0x2E2AE, size: 0x8, addend: 0x0, symName: __Z10memberMenuRNSt3__16vectorI6MemberNS_9allocatorIS1_EEEERKNS_12basic_stringIcNS_11char_traitsIcEENS2_IcEEEE, symObjAddr: 0x730, symBinAddr: 0x10000B8F8, symSize: 0x2D4 }
  - { offsetInCU: 0x9CB2, offset: 0x2E341, size: 0x8, addend: 0x0, symName: __Z11userSubMenuRNSt3__16vectorI4UserNS_9allocatorIS1_EEEE, symObjAddr: 0xA1C, symBinAddr: 0x10000BBE4, symSize: 0x1F8 }
  - { offsetInCU: 0x9CE9, offset: 0x2E378, size: 0x8, addend: 0x0, symName: __Z11libraryMenuR7Library, symObjAddr: 0xC2C, symBinAddr: 0x10000BDF4, symSize: 0x3D0 }
  - { offsetInCU: 0x9DBA, offset: 0x2E449, size: 0x8, addend: 0x0, symName: __ZN4BookC1Ev, symObjAddr: 0x1024, symBinAddr: 0x10000C1EC, symSize: 0x2C }
  - { offsetInCU: 0x9DE3, offset: 0x2E472, size: 0x8, addend: 0x0, symName: __ZN6MemberC1Ev, symObjAddr: 0x107C, symBinAddr: 0x10000C218, symSize: 0x2C }
  - { offsetInCU: 0x9E0C, offset: 0x2E49B, size: 0x8, addend: 0x0, symName: __ZN11TransactionC1Ev, symObjAddr: 0x10D4, symBinAddr: 0x10000C244, symSize: 0x2C }
  - { offsetInCU: 0x9E34, offset: 0x2E4C3, size: 0x8, addend: 0x0, symName: __Z14catalogSubMenuRK7Catalog, symObjAddr: 0x112C, symBinAddr: 0x10000C270, symSize: 0x340 }
  - { offsetInCU: 0x9ECB, offset: 0x2E55A, size: 0x8, addend: 0x0, symName: __Z18transactionSubMenuRNSt3__16vectorI11TransactionNS_9allocatorIS1_EEEE, symObjAddr: 0x14E4, symBinAddr: 0x10000C5C4, symSize: 0x300 }
  - { offsetInCU: 0x9F83, offset: 0x2E612, size: 0x8, addend: 0x0, symName: _main, symObjAddr: 0x17F8, symBinAddr: 0x10000C8D8, symSize: 0x438 }
  - { offsetInCU: 0xA00E, offset: 0x2E69D, size: 0x8, addend: 0x0, symName: __ZNSt3__16vectorI4UserNS_9allocatorIS1_EEEC1B7v160006Ev, symObjAddr: 0x1CA4, symBinAddr: 0x10000CD2C, symSize: 0x2C }
  - { offsetInCU: 0xA03C, offset: 0x2E6CB, size: 0x8, addend: 0x0, symName: __ZNSt3__112basic_stringIcNS_11char_traitsIcEENS_9allocatorIcEEEC1B7v160006IDnEEPKc, symObjAddr: 0x1CFC, symBinAddr: 0x10000CD58, symSize: 0x34 }
  - { offsetInCU: 0xA079, offset: 0x2E708, size: 0x8, addend: 0x0, symName: __ZNSt3__16vectorI11TransactionNS_9allocatorIS1_EEED1B7v160006Ev, symObjAddr: 0x1D30, symBinAddr: 0x10000CD8C, symSize: 0x2C }
  - { offsetInCU: 0xA1F8, offset: 0x2E887, size: 0x8, addend: 0x0, symName: __ZN7LibraryD1Ev, symObjAddr: 0x1D5C, symBinAddr: 0x10000CDB8, symSize: 0x2C }
  - { offsetInCU: 0xA223, offset: 0x2E8B2, size: 0x8, addend: 0x0, symName: __ZNSt3__16vectorI4UserNS_9allocatorIS1_EEED1B7v160006Ev, symObjAddr: 0x1D88, symBinAddr: 0x10000CDE4, symSize: 0x2C }
  - { offsetInCU: 0xA24C, offset: 0x2E8DB, size: 0x8, addend: 0x0, symName: __ZNSt3__16vectorI6MemberNS_9allocatorIS1_EEED1B7v160006Ev, symObjAddr: 0x1DB4, symBinAddr: 0x10000CE10, symSize: 0x2C }
  - { offsetInCU: 0xA275, offset: 0x2E904, size: 0x8, addend: 0x0, symName: __ZNSt3__16vectorI4BookNS_9allocatorIS1_EEED1B7v160006Ev, symObjAddr: 0x1DE0, symBinAddr: 0x10000CE3C, symSize: 0x2C }
  - { offsetInCU: 0xA29E, offset: 0x2E92D, size: 0x8, addend: 0x0, symName: __ZN4BookC2Ev, symObjAddr: 0x1E14, symBinAddr: 0x10000CE68, symSize: 0x50 }
  - { offsetInCU: 0xA2C7, offset: 0x2E956, size: 0x8, addend: 0x0, symName: __ZN6MemberC2Ev, symObjAddr: 0x1EB4, symBinAddr: 0x10000CEB8, symSize: 0x38 }
  - { offsetInCU: 0xA2F0, offset: 0x2E97F, size: 0x8, addend: 0x0, symName: __ZN11TransactionC2Ev, symObjAddr: 0x1F24, symBinAddr: 0x10000CEF0, symSize: 0x3C }
  - { offsetInCU: 0xA319, offset: 0x2E9A8, size: 0x8, addend: 0x0, symName: __ZN7LibraryD2Ev, symObjAddr: 0x1F9C, symBinAddr: 0x10000CF2C, symSize: 0x44 }
  - { offsetInCU: 0xA3E0, offset: 0x2EA6F, size: 0x8, addend: 0x0, symName: __ZNSt3__115basic_streambufIcNS_11char_traitsIcEEE5sgetcB7v160006Ev, symObjAddr: 0x2CF8, symBinAddr: 0x10000CF70, symSize: 0x70 }
  - { offsetInCU: 0xA405, offset: 0x2EA94, size: 0x8, addend: 0x0, symName: __ZNKSt3__15ctypeIcE2isB7v160006Ejc, symObjAddr: 0x2D80, symBinAddr: 0x10000CFE0, symSize: 0x7C }
  - { offsetInCU: 0xA447, offset: 0x2EAD6, size: 0x8, addend: 0x0, symName: __Z7isasciii, symObjAddr: 0x3108, symBinAddr: 0x10000D05C, symSize: 0x24 }
  - { offsetInCU: 0xA479, offset: 0x2EB08, size: 0x8, addend: 0x0, symName: __ZNSt3__16vectorI4BookNS_9allocatorIS1_EEED2B7v160006Ev, symObjAddr: 0x35BC, symBinAddr: 0x10000D080, symSize: 0x44 }
  - { offsetInCU: 0xA4A2, offset: 0x2EB31, size: 0x8, addend: 0x0, symName: __ZNSt3__16vectorI4BookNS_9allocatorIS1_EEE16__destroy_vectorC1ERS4_, symObjAddr: 0x3600, symBinAddr: 0x10000D0C4, symSize: 0x34 }
  - { offsetInCU: 0xA4DA, offset: 0x2EB69, size: 0x8, addend: 0x0, symName: __ZNSt3__16vectorI4BookNS_9allocatorIS1_EEE16__destroy_vectorclB7v160006Ev, symObjAddr: 0x3634, symBinAddr: 0x10000D0F8, symSize: 0x9C }
  - { offsetInCU: 0xA4FF, offset: 0x2EB8E, size: 0x8, addend: 0x0, symName: __ZNSt3__16vectorI4BookNS_9allocatorIS1_EEE16__destroy_vectorC2ERS4_, symObjAddr: 0x36D0, symBinAddr: 0x10000D194, symSize: 0x20 }
  - { offsetInCU: 0xA537, offset: 0x2EBC6, size: 0x8, addend: 0x0, symName: __ZNSt3__16vectorI4BookNS_9allocatorIS1_EEE7__clearB7v160006Ev, symObjAddr: 0x37D4, symBinAddr: 0x10000D1C4, symSize: 0x28 }
  - { offsetInCU: 0xA55C, offset: 0x2EBEB, size: 0x8, addend: 0x0, symName: __ZNSt3__16vectorI6MemberNS_9allocatorIS1_EEED2B7v160006Ev, symObjAddr: 0x3CC0, symBinAddr: 0x10000D1EC, symSize: 0x44 }
  - { offsetInCU: 0xA585, offset: 0x2EC14, size: 0x8, addend: 0x0, symName: __ZNSt3__16vectorI6MemberNS_9allocatorIS1_EEE16__destroy_vectorC1ERS4_, symObjAddr: 0x3D04, symBinAddr: 0x10000D230, symSize: 0x34 }
  - { offsetInCU: 0xA5BD, offset: 0x2EC4C, size: 0x8, addend: 0x0, symName: __ZNSt3__16vectorI6MemberNS_9allocatorIS1_EEE16__destroy_vectorclB7v160006Ev, symObjAddr: 0x3D38, symBinAddr: 0x10000D264, symSize: 0x9C }
  - { offsetInCU: 0xA5E2, offset: 0x2EC71, size: 0x8, addend: 0x0, symName: __ZNSt3__16vectorI6MemberNS_9allocatorIS1_EEE16__destroy_vectorC2ERS4_, symObjAddr: 0x3DD4, symBinAddr: 0x10000D300, symSize: 0x20 }
  - { offsetInCU: 0xA61A, offset: 0x2ECA9, size: 0x8, addend: 0x0, symName: __ZNSt3__16vectorI6MemberNS_9allocatorIS1_EEE7__clearB7v160006Ev, symObjAddr: 0x3ED8, symBinAddr: 0x10000D330, symSize: 0x28 }
  - { offsetInCU: 0xA63F, offset: 0x2ECCE, size: 0x8, addend: 0x0, symName: __ZNSt3__16vectorI4UserNS_9allocatorIS1_EEEC2B7v160006Ev, symObjAddr: 0x41DC, symBinAddr: 0x10000D358, symSize: 0x58 }
  - { offsetInCU: 0xA668, offset: 0x2ECF7, size: 0x8, addend: 0x0, symName: __ZNSt3__117__compressed_pairIP4UserNS_9allocatorIS1_EEEC1B7v160006IDnNS_18__default_init_tagEEEOT_OT0_, symObjAddr: 0x4234, symBinAddr: 0x10000D3B0, symSize: 0x3C }
  - { offsetInCU: 0xA6BF, offset: 0x2ED4E, size: 0x8, addend: 0x0, symName: __ZNSt3__117__compressed_pairIP4UserNS_9allocatorIS1_EEEC2B7v160006IDnNS_18__default_init_tagEEEOT_OT0_, symObjAddr: 0x4280, symBinAddr: 0x10000D3FC, symSize: 0x40 }
  - { offsetInCU: 0xA716, offset: 0x2EDA5, size: 0x8, addend: 0x0, symName: __ZNSt3__122__compressed_pair_elemIP4UserLi0ELb0EEC2B7v160006IDnvEEOT_, symObjAddr: 0x42C0, symBinAddr: 0x10000D43C, symSize: 0x1C }
  - { offsetInCU: 0xA757, offset: 0x2EDE6, size: 0x8, addend: 0x0, symName: __ZNSt3__122__compressed_pair_elemINS_9allocatorI4UserEELi1ELb1EEC2B7v160006ENS_18__default_init_tagE, symObjAddr: 0x42DC, symBinAddr: 0x10000D458, symSize: 0x2C }
  - { offsetInCU: 0xA78B, offset: 0x2EE1A, size: 0x8, addend: 0x0, symName: __ZNSt3__19allocatorI4UserEC2B7v160006Ev, symObjAddr: 0x4308, symBinAddr: 0x10000D484, symSize: 0x2C }
  - { offsetInCU: 0xA7B4, offset: 0x2EE43, size: 0x8, addend: 0x0, symName: __ZNSt3__116__non_trivial_ifILb1ENS_9allocatorI4UserEEEC2B7v160006Ev, symObjAddr: 0x4334, symBinAddr: 0x10000D4B0, symSize: 0x14 }
  - { offsetInCU: 0xA7DD, offset: 0x2EE6C, size: 0x8, addend: 0x0, symName: __ZNSt3__16vectorI4UserNS_9allocatorIS1_EEED2B7v160006Ev, symObjAddr: 0x4348, symBinAddr: 0x10000D4C4, symSize: 0x44 }
  - { offsetInCU: 0xA806, offset: 0x2EE95, size: 0x8, addend: 0x0, symName: __ZNSt3__16vectorI4UserNS_9allocatorIS1_EEE16__destroy_vectorC1ERS4_, symObjAddr: 0x438C, symBinAddr: 0x10000D508, symSize: 0x34 }
  - { offsetInCU: 0xA83E, offset: 0x2EECD, size: 0x8, addend: 0x0, symName: __ZNSt3__16vectorI4UserNS_9allocatorIS1_EEE16__destroy_vectorclB7v160006Ev, symObjAddr: 0x43C0, symBinAddr: 0x10000D53C, symSize: 0x9C }
  - { offsetInCU: 0xA863, offset: 0x2EEF2, size: 0x8, addend: 0x0, symName: __ZNSt3__16vectorI4UserNS_9allocatorIS1_EEE16__destroy_vectorC2ERS4_, symObjAddr: 0x445C, symBinAddr: 0x10000D5D8, symSize: 0x20 }
  - { offsetInCU: 0xA89B, offset: 0x2EF2A, size: 0x8, addend: 0x0, symName: __ZNKSt3__16vectorI4UserNS_9allocatorIS1_EEE17__annotate_deleteB7v160006Ev, symObjAddr: 0x447C, symBinAddr: 0x10000D5F8, symSize: 0xD4 }
  - { offsetInCU: 0xA8C0, offset: 0x2EF4F, size: 0x8, addend: 0x0, symName: __ZNSt3__16vectorI4UserNS_9allocatorIS1_EEE7__clearB7v160006Ev, symObjAddr: 0x4560, symBinAddr: 0x10000D6DC, symSize: 0x28 }
  - { offsetInCU: 0xA8E5, offset: 0x2EF74, size: 0x8, addend: 0x0, symName: __ZNSt3__116allocator_traitsINS_9allocatorI4UserEEE10deallocateB7v160006ERS3_PS2_m, symObjAddr: 0x4588, symBinAddr: 0x10000D704, symSize: 0x34 }
  - { offsetInCU: 0xA927, offset: 0x2EFB6, size: 0x8, addend: 0x0, symName: __ZNSt3__16vectorI4UserNS_9allocatorIS1_EEE7__allocB7v160006Ev, symObjAddr: 0x45BC, symBinAddr: 0x10000D738, symSize: 0x28 }
  - { offsetInCU: 0xA94C, offset: 0x2EFDB, size: 0x8, addend: 0x0, symName: __ZNKSt3__16vectorI4UserNS_9allocatorIS1_EEE8capacityB7v160006Ev, symObjAddr: 0x45E4, symBinAddr: 0x10000D760, symSize: 0x40 }
  - { offsetInCU: 0xA971, offset: 0x2F000, size: 0x8, addend: 0x0, symName: __ZNKSt3__16vectorI4UserNS_9allocatorIS1_EEE31__annotate_contiguous_containerB7v160006EPKvS6_S6_S6_, symObjAddr: 0x4624, symBinAddr: 0x10000D7A0, symSize: 0x20 }
  - { offsetInCU: 0xA9C6, offset: 0x2F055, size: 0x8, addend: 0x0, symName: __ZNKSt3__16vectorI4UserNS_9allocatorIS1_EEE4dataB7v160006Ev, symObjAddr: 0x4644, symBinAddr: 0x10000D7C0, symSize: 0x28 }
  - { offsetInCU: 0xA9EB, offset: 0x2F07A, size: 0x8, addend: 0x0, symName: __ZNKSt3__16vectorI4UserNS_9allocatorIS1_EEE4sizeB7v160006Ev, symObjAddr: 0x466C, symBinAddr: 0x10000D7E8, symSize: 0x28 }
  - { offsetInCU: 0xAA10, offset: 0x2F09F, size: 0x8, addend: 0x0, symName: __ZNSt3__16vectorI4UserNS_9allocatorIS1_EEE22__base_destruct_at_endB7v160006EPS1_, symObjAddr: 0x46A8, symBinAddr: 0x10000D824, symSize: 0x8C }
  - { offsetInCU: 0xAA53, offset: 0x2F0E2, size: 0x8, addend: 0x0, symName: __ZNSt3__116allocator_traitsINS_9allocatorI4UserEEE7destroyB7v160006IS2_vEEvRS3_PT_, symObjAddr: 0x4734, symBinAddr: 0x10000D8B0, symSize: 0x2C }
  - { offsetInCU: 0xAA90, offset: 0x2F11F, size: 0x8, addend: 0x0, symName: __ZNSt3__19allocatorI4UserE7destroyB7v160006EPS1_, symObjAddr: 0x4760, symBinAddr: 0x10000D8DC, symSize: 0x28 }
  - { offsetInCU: 0xAAC3, offset: 0x2F152, size: 0x8, addend: 0x0, symName: __ZN4UserD1Ev, symObjAddr: 0x4788, symBinAddr: 0x10000D904, symSize: 0x2C }
  - { offsetInCU: 0xAAEE, offset: 0x2F17D, size: 0x8, addend: 0x0, symName: __ZN4UserD2Ev, symObjAddr: 0x47B4, symBinAddr: 0x10000D930, symSize: 0x68 }
  - { offsetInCU: 0xAB19, offset: 0x2F1A8, size: 0x8, addend: 0x0, symName: __ZNSt3__19allocatorI4UserE10deallocateB7v160006EPS1_m, symObjAddr: 0x481C, symBinAddr: 0x10000D998, symSize: 0x44 }
  - { offsetInCU: 0xAB5A, offset: 0x2F1E9, size: 0x8, addend: 0x0, symName: __ZNSt3__117__compressed_pairIP4UserNS_9allocatorIS1_EEE6secondB7v160006Ev, symObjAddr: 0x4860, symBinAddr: 0x10000D9DC, symSize: 0x24 }
  - { offsetInCU: 0xAB7F, offset: 0x2F20E, size: 0x8, addend: 0x0, symName: __ZNSt3__122__compressed_pair_elemINS_9allocatorI4UserEELi1ELb1EE5__getB7v160006Ev, symObjAddr: 0x4884, symBinAddr: 0x10000DA00, symSize: 0x14 }
  - { offsetInCU: 0xABA4, offset: 0x2F233, size: 0x8, addend: 0x0, symName: __ZNKSt3__16vectorI4UserNS_9allocatorIS1_EEE9__end_capB7v160006Ev, symObjAddr: 0x4898, symBinAddr: 0x10000DA14, symSize: 0x28 }
  - { offsetInCU: 0xABC9, offset: 0x2F258, size: 0x8, addend: 0x0, symName: __ZNKSt3__117__compressed_pairIP4UserNS_9allocatorIS1_EEE5firstB7v160006Ev, symObjAddr: 0x48C0, symBinAddr: 0x10000DA3C, symSize: 0x24 }
  - { offsetInCU: 0xABEE, offset: 0x2F27D, size: 0x8, addend: 0x0, symName: __ZNKSt3__122__compressed_pair_elemIP4UserLi0ELb0EE5__getB7v160006Ev, symObjAddr: 0x48E4, symBinAddr: 0x10000DA60, symSize: 0x14 }
  - { offsetInCU: 0xAC13, offset: 0x2F2A2, size: 0x8, addend: 0x0, symName: __ZNSt3__16vectorI11TransactionNS_9allocatorIS1_EEED2B7v160006Ev, symObjAddr: 0x48F8, symBinAddr: 0x10000DA74, symSize: 0x44 }
  - { offsetInCU: 0xAC3C, offset: 0x2F2CB, size: 0x8, addend: 0x0, symName: __ZNSt3__16vectorI11TransactionNS_9allocatorIS1_EEE16__destroy_vectorC1ERS4_, symObjAddr: 0x493C, symBinAddr: 0x10000DAB8, symSize: 0x34 }
  - { offsetInCU: 0xAC74, offset: 0x2F303, size: 0x8, addend: 0x0, symName: __ZNSt3__16vectorI11TransactionNS_9allocatorIS1_EEE16__destroy_vectorclB7v160006Ev, symObjAddr: 0x4970, symBinAddr: 0x10000DAEC, symSize: 0x9C }
  - { offsetInCU: 0xAC99, offset: 0x2F328, size: 0x8, addend: 0x0, symName: __ZNSt3__16vectorI11TransactionNS_9allocatorIS1_EEE16__destroy_vectorC2ERS4_, symObjAddr: 0x4A0C, symBinAddr: 0x10000DB88, symSize: 0x20 }
  - { offsetInCU: 0xACD1, offset: 0x2F360, size: 0x8, addend: 0x0, symName: __ZNSt3__16vectorI11TransactionNS_9allocatorIS1_EEE7__clearB7v160006Ev, symObjAddr: 0x4AF4, symBinAddr: 0x10000DBB8, symSize: 0x28 }
  - { offsetInCU: 0xACF6, offset: 0x2F385, size: 0x8, addend: 0x0, symName: __ZNSt3__112basic_stringIcNS_11char_traitsIcEENS_9allocatorIcEEEC2B7v160006IDnEEPKc, symObjAddr: 0x4F60, symBinAddr: 0x10000DBE0, symSize: 0x60 }
  - { offsetInCU: 0x3EE4, offset: 0x33313, size: 0x8, addend: 0x0, symName: '__ZNSt3__17find_ifB7v160006INS_11__wrap_iterIP6MemberEEZNS2_12deleteMemberERNS_6vectorIS2_NS_9allocatorIS2_EEEEiE3$_0EET_SB_SB_T0_', symObjAddr: 0xAB8, symBinAddr: 0x10000E33C, symSize: 0x7C }
  - { offsetInCU: 0x608B, offset: 0x354BA, size: 0x8, addend: 0x0, symName: __ZN6MemberC2ERKNSt3__112basic_stringIcNS0_11char_traitsIcEENS0_9allocatorIcEEEEiS8_, symObjAddr: 0x0, symBinAddr: 0x10000DC40, symSize: 0x7C }
  - { offsetInCU: 0x60E0, offset: 0x3550F, size: 0x8, addend: 0x0, symName: __ZN6MemberC1ERKNSt3__112basic_stringIcNS0_11char_traitsIcEENS0_9allocatorIcEEEEiS8_, symObjAddr: 0x7C, symBinAddr: 0x10000DCBC, symSize: 0x44 }
  - { offsetInCU: 0x6135, offset: 0x35564, size: 0x8, addend: 0x0, symName: __ZNK6Member7getNameEv, symObjAddr: 0xC0, symBinAddr: 0x10000DD00, symSize: 0x38 }
  - { offsetInCU: 0x615C, offset: 0x3558B, size: 0x8, addend: 0x0, symName: __ZNK6Member5getIDEv, symObjAddr: 0xF8, symBinAddr: 0x10000DD38, symSize: 0x18 }
  - { offsetInCU: 0x6183, offset: 0x355B2, size: 0x8, addend: 0x0, symName: __ZNK6Member11getMemberIDEv, symObjAddr: 0x110, symBinAddr: 0x10000DD50, symSize: 0x18 }
  - { offsetInCU: 0x61AA, offset: 0x355D9, size: 0x8, addend: 0x0, symName: __ZNK6Member14getContactInfoEv, symObjAddr: 0x128, symBinAddr: 0x10000DD68, symSize: 0x3C }
  - { offsetInCU: 0x61D1, offset: 0x35600, size: 0x8, addend: 0x0, symName: __ZNK6Member4viewEv, symObjAddr: 0x164, symBinAddr: 0x10000DDA4, symSize: 0xA0 }
  - { offsetInCU: 0x61F8, offset: 0x35627, size: 0x8, addend: 0x0, symName: __ZN6Member11listMembersERKNSt3__16vectorIS_NS0_9allocatorIS_EEEE, symObjAddr: 0x31C, symBinAddr: 0x10000DE44, symSize: 0x98 }
  - { offsetInCU: 0x6270, offset: 0x3569F, size: 0x8, addend: 0x0, symName: __ZN6Member12searchMemberERKNSt3__16vectorIS_NS0_9allocatorIS_EEEERKNS0_12basic_stringIcNS0_11char_traitsIcEENS2_IcEEEE, symObjAddr: 0x480, symBinAddr: 0x10000DEDC, symSize: 0x18C }
  - { offsetInCU: 0x62E4, offset: 0x35713, size: 0x8, addend: 0x0, symName: __ZN6Member12addNewMemberERNSt3__16vectorIS_NS0_9allocatorIS_EEEE, symObjAddr: 0x754, symBinAddr: 0x10000E068, symSize: 0x15C }
  - { offsetInCU: 0x633C, offset: 0x3576B, size: 0x8, addend: 0x0, symName: __ZNSt3__16vectorI6MemberNS_9allocatorIS1_EEE12emplace_backIJRNS_12basic_stringIcNS_11char_traitsIcEENS2_IcEEEERiSB_EEEvDpOT_, symObjAddr: 0x940, symBinAddr: 0x10000E1C4, symSize: 0x84 }
  - { offsetInCU: 0x63A5, offset: 0x357D4, size: 0x8, addend: 0x0, symName: __ZN6Member12deleteMemberERNSt3__16vectorIS_NS0_9allocatorIS_EEEEi, symObjAddr: 0x9C4, symBinAddr: 0x10000E248, symSize: 0xF4 }
  - { offsetInCU: 0x6411, offset: 0x35840, size: 0x8, addend: 0x0, symName: __ZNSt3__16vectorI6MemberNS_9allocatorIS1_EEE22__construct_one_at_endB7v160006IJRNS_12basic_stringIcNS_11char_traitsIcEENS2_IcEEEERiSB_EEEvDpOT_, symObjAddr: 0x2230, symBinAddr: 0x10000E3B8, symSize: 0xA0 }
  - { offsetInCU: 0x6486, offset: 0x358B5, size: 0x8, addend: 0x0, symName: __ZNSt3__16vectorI6MemberNS_9allocatorIS1_EEE24__emplace_back_slow_pathIJRNS_12basic_stringIcNS_11char_traitsIcEENS2_IcEEEERiSB_EEEvDpOT_, symObjAddr: 0x22D0, symBinAddr: 0x10000E458, symSize: 0xE8 }
  - { offsetInCU: 0x6526, offset: 0x35955, size: 0x8, addend: 0x0, symName: __ZNSt3__116allocator_traitsINS_9allocatorI6MemberEEE9constructB7v160006IS2_JRNS_12basic_stringIcNS_11char_traitsIcEENS1_IcEEEERiSB_EvEEvRS3_PT_DpOT0_, symObjAddr: 0x242C, symBinAddr: 0x10000E540, symSize: 0x44 }
  - { offsetInCU: 0x65A5, offset: 0x359D4, size: 0x8, addend: 0x0, symName: __ZNSt3__19allocatorI6MemberE9constructB7v160006IS1_JRNS_12basic_stringIcNS_11char_traitsIcEENS0_IcEEEERiS9_EEEvPT_DpOT0_, symObjAddr: 0x2524, symBinAddr: 0x10000E584, symSize: 0x44 }
  - { offsetInCU: 0x6639, offset: 0x35A68, size: 0x8, addend: 0x0, symName: '__ZZN6Member12deleteMemberERNSt3__16vectorIS_NS0_9allocatorIS_EEEEiENK3$_0clERKS_', symObjAddr: 0x3F20, symBinAddr: 0x10000E5C8, symSize: 0x44 }
  - { offsetInCU: 0x3F38, offset: 0x399E5, size: 0x8, addend: 0x0, symName: '__ZNSt3__17find_ifB7v160006INS_11__wrap_iterIP11TransactionEEZNS2_17deleteTransactionERNS_6vectorIS2_NS_9allocatorIS2_EEEEiE3$_0EET_SB_SB_T0_', symObjAddr: 0x870, symBinAddr: 0x10000EC70, symSize: 0x7C }
  - { offsetInCU: 0x611F, offset: 0x3BBCC, size: 0x8, addend: 0x0, symName: __ZN11TransactionC2EiiiRKNSt3__112basic_stringIcNS0_11char_traitsIcEENS0_9allocatorIcEEEES8_, symObjAddr: 0x0, symBinAddr: 0x10000E60C, symSize: 0x9C }
  - { offsetInCU: 0x6190, offset: 0x3BC3D, size: 0x8, addend: 0x0, symName: __ZN11TransactionC1EiiiRKNSt3__112basic_stringIcNS0_11char_traitsIcEENS0_9allocatorIcEEEES8_, symObjAddr: 0x9C, symBinAddr: 0x10000E6A8, symSize: 0x54 }
  - { offsetInCU: 0x6201, offset: 0x3BCAE, size: 0x8, addend: 0x0, symName: __ZNK11Transaction16getTransactionIDEv, symObjAddr: 0xF0, symBinAddr: 0x10000E6FC, symSize: 0x18 }
  - { offsetInCU: 0x6228, offset: 0x3BCD5, size: 0x8, addend: 0x0, symName: __ZNK11Transaction11getMemberIDEv, symObjAddr: 0x108, symBinAddr: 0x10000E714, symSize: 0x18 }
  - { offsetInCU: 0x624F, offset: 0x3BCFC, size: 0x8, addend: 0x0, symName: __ZNK11Transaction9getBookIDEv, symObjAddr: 0x120, symBinAddr: 0x10000E72C, symSize: 0x18 }
  - { offsetInCU: 0x6276, offset: 0x3BD23, size: 0x8, addend: 0x0, symName: __ZNK11Transaction13getBorrowDateEv, symObjAddr: 0x138, symBinAddr: 0x10000E744, symSize: 0x3C }
  - { offsetInCU: 0x629D, offset: 0x3BD4A, size: 0x8, addend: 0x0, symName: __ZNK11Transaction13getReturnDateEv, symObjAddr: 0x174, symBinAddr: 0x10000E780, symSize: 0x3C }
  - { offsetInCU: 0x62C4, offset: 0x3BD71, size: 0x8, addend: 0x0, symName: __ZNK11Transaction4viewEv, symObjAddr: 0x1B0, symBinAddr: 0x10000E7BC, symSize: 0xEC }
  - { offsetInCU: 0x62EB, offset: 0x3BD98, size: 0x8, addend: 0x0, symName: __ZN11Transaction16listTransactionsERKNSt3__16vectorIS_NS0_9allocatorIS_EEEE, symObjAddr: 0x3B4, symBinAddr: 0x10000E8A8, symSize: 0x98 }
  - { offsetInCU: 0x6363, offset: 0x3BE10, size: 0x8, addend: 0x0, symName: __ZN11Transaction17searchTransactionERKNSt3__16vectorIS_NS0_9allocatorIS_EEEEi, symObjAddr: 0x518, symBinAddr: 0x10000E940, symSize: 0xE0 }
  - { offsetInCU: 0x63E9, offset: 0x3BE96, size: 0x8, addend: 0x0, symName: __ZN11Transaction17addNewTransactionERNSt3__16vectorIS_NS0_9allocatorIS_EEEEiiRKNS0_12basic_stringIcNS0_11char_traitsIcEENS2_IcEEEESC_, symObjAddr: 0x5F8, symBinAddr: 0x10000EA20, symSize: 0xA4 }
  - { offsetInCU: 0x6454, offset: 0x3BF01, size: 0x8, addend: 0x0, symName: __ZNSt3__16vectorI11TransactionNS_9allocatorIS1_EEE4backB7v160006Ev, symObjAddr: 0x6C4, symBinAddr: 0x10000EAC4, symSize: 0x1C }
  - { offsetInCU: 0x647D, offset: 0x3BF2A, size: 0x8, addend: 0x0, symName: __ZNSt3__16vectorI11TransactionNS_9allocatorIS1_EEE12emplace_backIJRiS6_S6_RKNS_12basic_stringIcNS_11char_traitsIcEENS2_IcEEEESD_EEEvDpOT_, symObjAddr: 0x6E0, symBinAddr: 0x10000EAE0, symSize: 0x9C }
  - { offsetInCU: 0x650E, offset: 0x3BFBB, size: 0x8, addend: 0x0, symName: __ZN11Transaction17deleteTransactionERNSt3__16vectorIS_NS0_9allocatorIS_EEEEi, symObjAddr: 0x77C, symBinAddr: 0x10000EB7C, symSize: 0xF4 }
  - { offsetInCU: 0x657A, offset: 0x3C027, size: 0x8, addend: 0x0, symName: __ZNSt3__16vectorI11TransactionNS_9allocatorIS1_EEE22__construct_one_at_endB7v160006IJRiS6_S6_RKNS_12basic_stringIcNS_11char_traitsIcEENS2_IcEEEESD_EEEvDpOT_, symObjAddr: 0x1790, symBinAddr: 0x10000ECEC, symSize: 0xB0 }
  - { offsetInCU: 0x6617, offset: 0x3C0C4, size: 0x8, addend: 0x0, symName: __ZNSt3__16vectorI11TransactionNS_9allocatorIS1_EEE24__emplace_back_slow_pathIJRiS6_S6_RKNS_12basic_stringIcNS_11char_traitsIcEENS2_IcEEEESD_EEEvDpOT_, symObjAddr: 0x1840, symBinAddr: 0x10000ED9C, symSize: 0xF8 }
  - { offsetInCU: 0x66DF, offset: 0x3C18C, size: 0x8, addend: 0x0, symName: __ZNSt3__116allocator_traitsINS_9allocatorI11TransactionEEE9constructB7v160006IS2_JRiS6_S6_RKNS_12basic_stringIcNS_11char_traitsIcEENS1_IcEEEESD_EvEEvRS3_PT_DpOT0_, symObjAddr: 0x19AC, symBinAddr: 0x10000EE94, symSize: 0x54 }
  - { offsetInCU: 0x6786, offset: 0x3C233, size: 0x8, addend: 0x0, symName: __ZNSt3__19allocatorI11TransactionE9constructB7v160006IS1_JRiS4_S4_RKNS_12basic_stringIcNS_11char_traitsIcEENS0_IcEEEESB_EEEvPT_DpOT0_, symObjAddr: 0x1AAC, symBinAddr: 0x10000EEE8, symSize: 0x5C }
  - { offsetInCU: 0x6840, offset: 0x3C2ED, size: 0x8, addend: 0x0, symName: '__ZZN11Transaction17deleteTransactionERNSt3__16vectorIS_NS0_9allocatorIS_EEEEiENK3$_0clERKS_', symObjAddr: 0x34F8, symBinAddr: 0x10000EF44, symSize: 0x44 }
  - { offsetInCU: 0x47E3, offset: 0x40B15, size: 0x8, addend: 0x0, symName: __ZNSt3__1neB7v160006IPK4UserEEbRKNS_11__wrap_iterIT_EES8_, symObjAddr: 0x644, symBinAddr: 0x10000F36C, symSize: 0x34 }
  - { offsetInCU: 0x4826, offset: 0x40B58, size: 0x8, addend: 0x0, symName: __ZNSt3__1eqB7v160006IPK4UserEEbRKNS_11__wrap_iterIT_EES8_, symObjAddr: 0x10D8, symBinAddr: 0x10000FA74, symSize: 0x48 }
  - { offsetInCU: 0x4869, offset: 0x40B9B, size: 0x8, addend: 0x0, symName: __ZNSt3__119__allocate_at_leastB7v160006INS_9allocatorI4UserEEEENS_19__allocation_resultINS_16allocator_traitsIT_E7pointerEEERS6_m, symObjAddr: 0x3140, symBinAddr: 0x1000103AC, symSize: 0x40 }
  - { offsetInCU: 0x48AC, offset: 0x40BDE, size: 0x8, addend: 0x0, symName: __ZNSt3__142__uninitialized_allocator_move_if_noexceptB7v160006INS_9allocatorI4UserEENS_16reverse_iteratorIPS2_EES6_S6_EET2_RT_T0_T1_S7_, symObjAddr: 0x3468, symBinAddr: 0x100010564, symSize: 0x12C }
  - { offsetInCU: 0x494C, offset: 0x40C7E, size: 0x8, addend: 0x0, symName: __ZNSt3__14swapB7v160006IP4UserEENS_9enable_ifIXaasr21is_move_constructibleIT_EE5valuesr18is_move_assignableIS4_EE5valueEvE4typeERS4_S7_, symObjAddr: 0x35E0, symBinAddr: 0x1000106DC, symSize: 0x3C }
  - { offsetInCU: 0x499D, offset: 0x40CCF, size: 0x8, addend: 0x0, symName: __ZNSt3__125__debug_db_invalidate_allB7v160006INS_6vectorI4UserNS_9allocatorIS2_EEEEEEvPT_, symObjAddr: 0x36E4, symBinAddr: 0x1000107E0, symSize: 0x10 }
  - { offsetInCU: 0x49CE, offset: 0x40D00, size: 0x8, addend: 0x0, symName: __ZNSt3__122__make_exception_guardB7v160006INS_29_AllocatorDestroyRangeReverseINS_9allocatorI4UserEENS_16reverse_iteratorIPS3_EEEEEENS_28__exception_guard_exceptionsIT_EESA_, symObjAddr: 0x373C, symBinAddr: 0x1000107F0, symSize: 0x4C }
  - { offsetInCU: 0x4A04, offset: 0x40D36, size: 0x8, addend: 0x0, symName: __ZNSt3__1neB7v160006IP4UserS2_EEbRKNS_16reverse_iteratorIT_EERKNS3_IT0_EE, symObjAddr: 0x37CC, symBinAddr: 0x100010880, symSize: 0x48 }
  - { offsetInCU: 0x4A50, offset: 0x40D82, size: 0x8, addend: 0x0, symName: __ZNSt3__112__to_addressB7v160006INS_16reverse_iteratorIP4UserEEvEENS_5decayIDTclsr19__to_address_helperIT_EE6__callclsr3stdE7declvalIRKS6_EEEEE4typeES8_, symObjAddr: 0x3814, symBinAddr: 0x1000108C8, symSize: 0x24 }
  - { offsetInCU: 0x4AAF, offset: 0x40DE1, size: 0x8, addend: 0x0, symName: __ZNSt3__119__allocator_destroyB7v160006INS_9allocatorI4UserEENS_16reverse_iteratorINS4_IPS2_EEEES7_EEvRT_T0_T1_, symObjAddr: 0x3AC4, symBinAddr: 0x100010B78, symSize: 0x70 }
  - { offsetInCU: 0x4B14, offset: 0x40E46, size: 0x8, addend: 0x0, symName: __ZNSt3__1neB7v160006INS_16reverse_iteratorIP4UserEES4_EEbRKNS1_IT_EERKNS1_IT0_EE, symObjAddr: 0x3B70, symBinAddr: 0x100010C24, symSize: 0x60 }
  - { offsetInCU: 0x4B60, offset: 0x40E92, size: 0x8, addend: 0x0, symName: __ZNSt3__112__to_addressB7v160006INS_16reverse_iteratorINS1_IP4UserEEEEvEENS_5decayIDTclsr19__to_address_helperIT_EE6__callclsr3stdE7declvalIRKS7_EEEEE4typeES9_, symObjAddr: 0x3BFC, symBinAddr: 0x100010C84, symSize: 0x24 }
  - { offsetInCU: 0x4BBF, offset: 0x40EF1, size: 0x8, addend: 0x0, symName: __ZNSt3__1miB7v160006IPK4UserS3_EEDTmicldtfp_4baseEcldtfp0_4baseEERKNS_11__wrap_iterIT_EERKNS5_IT0_EE, symObjAddr: 0x4144, symBinAddr: 0x1000110B0, symSize: 0x48 }
  - { offsetInCU: 0x4C0B, offset: 0x40F3D, size: 0x8, addend: 0x0, symName: __ZNSt3__14moveB7v160006IP4UserS2_EET0_T_S4_S3_, symObjAddr: 0x4218, symBinAddr: 0x100011184, symSize: 0x40 }
  - { offsetInCU: 0x4C65, offset: 0x40F97, size: 0x8, addend: 0x0, symName: __ZNSt3__16__moveB7v160006INS_17_ClassicAlgPolicyEP4UserS3_S3_EENS_4pairIT0_T2_EES5_T1_S6_, symObjAddr: 0x43C8, symBinAddr: 0x1000112A8, symSize: 0x44 }
  - { offsetInCU: 0x4CD1, offset: 0x41003, size: 0x8, addend: 0x0, symName: __ZNSt3__123__dispatch_copy_or_moveB7v160006INS_17_ClassicAlgPolicyENS_11__move_loopIS1_EENS_14__move_trivialEP4UserS6_S6_EENS_4pairIT2_T4_EES8_T3_S9_, symObjAddr: 0x440C, symBinAddr: 0x1000112EC, symSize: 0x44 }
  - { offsetInCU: 0x4D4F, offset: 0x41081, size: 0x8, addend: 0x0, symName: __ZNSt3__121__unwrap_and_dispatchB7v160006INS_10__overloadINS_11__move_loopINS_17_ClassicAlgPolicyEEENS_14__move_trivialEEEP4UserS8_S8_Li0EEENS_4pairIT0_T2_EESA_T1_SB_, symObjAddr: 0x4450, symBinAddr: 0x100011330, symSize: 0xB4 }
  - { offsetInCU: 0x4DDD, offset: 0x4110F, size: 0x8, addend: 0x0, symName: __ZNSt3__114__unwrap_rangeB7v160006IP4UserS2_EENS_4pairIT0_S4_EET_S6_, symObjAddr: 0x4504, symBinAddr: 0x1000113E4, symSize: 0x60 }
  - { offsetInCU: 0x4F4F, offset: 0x41281, size: 0x8, addend: 0x0, symName: __ZNSt3__113__unwrap_iterB7v160006IP4UserNS_18__unwrap_iter_implIS2_Lb1EEELi0EEEDTclsrT0_8__unwrapclsr3stdE7declvalIT_EEEES6_, symObjAddr: 0x45F4, symBinAddr: 0x1000114D4, symSize: 0x24 }
  - { offsetInCU: 0x4F93, offset: 0x412C5, size: 0x8, addend: 0x0, symName: __ZNSt3__19make_pairB7v160006IP4UserS2_EENS_4pairINS_18__unwrap_ref_decayIT_E4typeENS4_IT0_E4typeEEEOS5_OS8_, symObjAddr: 0x4618, symBinAddr: 0x1000114F8, symSize: 0x38 }
  - { offsetInCU: 0x4FE2, offset: 0x41314, size: 0x8, addend: 0x0, symName: __ZNSt3__114__rewrap_rangeB7v160006IP4UserS2_EET_S3_T0_, symObjAddr: 0x4650, symBinAddr: 0x100011530, symSize: 0x2C }
  - { offsetInCU: 0x502E, offset: 0x41360, size: 0x8, addend: 0x0, symName: __ZNSt3__113__rewrap_iterB7v160006IP4UserS2_NS_18__unwrap_iter_implIS2_Lb1EEEEET_S5_T0_, symObjAddr: 0x467C, symBinAddr: 0x10001155C, symSize: 0x3C }
  - { offsetInCU: 0x5578, offset: 0x418AA, size: 0x8, addend: 0x0, symName: __ZNSt3__16vectorI4UserNS_9allocatorIS1_EEE26__swap_out_circular_bufferERNS_14__split_bufferIS1_RS3_EE, symObjAddr: 0x2B08, symBinAddr: 0x10001002C, symSize: 0x118 }
  - { offsetInCU: 0x73BF, offset: 0x436F1, size: 0x8, addend: 0x0, symName: __ZN4UserC2ERKNSt3__112basic_stringIcNS0_11char_traitsIcEENS0_9allocatorIcEEEES8_S8_S8_S8_S8_, symObjAddr: 0x0, symBinAddr: 0x10000EF88, symSize: 0x150 }
  - { offsetInCU: 0x743E, offset: 0x43770, size: 0x8, addend: 0x0, symName: __ZN4UserC1ERKNSt3__112basic_stringIcNS0_11char_traitsIcEENS0_9allocatorIcEEEES8_S8_S8_S8_S8_, symObjAddr: 0x150, symBinAddr: 0x10000F0D8, symSize: 0x5C }
  - { offsetInCU: 0x74BD, offset: 0x437EF, size: 0x8, addend: 0x0, symName: __ZNK4User4viewEv, symObjAddr: 0x1AC, symBinAddr: 0x10000F134, symSize: 0x10C }
  - { offsetInCU: 0x74E4, offset: 0x43816, size: 0x8, addend: 0x0, symName: __ZNK4User12searchByNameERKNSt3__112basic_stringIcNS0_11char_traitsIcEENS0_9allocatorIcEEEE, symObjAddr: 0x3D0, symBinAddr: 0x10000F240, symSize: 0x34 }
  - { offsetInCU: 0x7519, offset: 0x4384B, size: 0x8, addend: 0x0, symName: __ZN4User9listUsersERKNSt3__16vectorIS_NS0_9allocatorIS_EEEE, symObjAddr: 0x54C, symBinAddr: 0x10000F274, symSize: 0x98 }
  - { offsetInCU: 0x7590, offset: 0x438C2, size: 0x8, addend: 0x0, symName: __ZNKSt3__16vectorI4UserNS_9allocatorIS1_EEE5beginB7v160006Ev, symObjAddr: 0x5E4, symBinAddr: 0x10000F30C, symSize: 0x30 }
  - { offsetInCU: 0x75B6, offset: 0x438E8, size: 0x8, addend: 0x0, symName: __ZNKSt3__16vectorI4UserNS_9allocatorIS1_EEE3endB7v160006Ev, symObjAddr: 0x614, symBinAddr: 0x10000F33C, symSize: 0x30 }
  - { offsetInCU: 0x75DD, offset: 0x4390F, size: 0x8, addend: 0x0, symName: __ZNKSt3__111__wrap_iterIPK4UserEdeB7v160006Ev, symObjAddr: 0x678, symBinAddr: 0x10000F3A0, symSize: 0x18 }
  - { offsetInCU: 0x7602, offset: 0x43934, size: 0x8, addend: 0x0, symName: __ZNSt3__111__wrap_iterIPK4UserEppB7v160006Ev, symObjAddr: 0x690, symBinAddr: 0x10000F3B8, symSize: 0x20 }
  - { offsetInCU: 0x7627, offset: 0x43959, size: 0x8, addend: 0x0, symName: __ZN4User10searchUserERKNSt3__16vectorIS_NS0_9allocatorIS_EEEE, symObjAddr: 0x6B0, symBinAddr: 0x10000F3D8, symSize: 0x16C }
  - { offsetInCU: 0x76B2, offset: 0x439E4, size: 0x8, addend: 0x0, symName: __ZN4User8viewUserERKNSt3__16vectorIS_NS0_9allocatorIS_EEEE, symObjAddr: 0xB54, symBinAddr: 0x10000F544, symSize: 0xB0 }
  - { offsetInCU: 0x76E5, offset: 0x43A17, size: 0x8, addend: 0x0, symName: __ZNKSt3__16vectorI4UserNS_9allocatorIS1_EEEixB7v160006Em, symObjAddr: 0xC2C, symBinAddr: 0x10000F5F4, symSize: 0x2C }
  - { offsetInCU: 0x771B, offset: 0x43A4D, size: 0x8, addend: 0x0, symName: __ZN4User7addUserERNSt3__16vectorIS_NS0_9allocatorIS_EEEE, symObjAddr: 0xC58, symBinAddr: 0x10000F620, symSize: 0x188 }
  - { offsetInCU: 0x7798, offset: 0x43ACA, size: 0x8, addend: 0x0, symName: __ZNSt3__16vectorI4UserNS_9allocatorIS1_EEE9push_backB7v160006EOS1_, symObjAddr: 0xDE0, symBinAddr: 0x10000F7A8, symSize: 0x6C }
  - { offsetInCU: 0x77CE, offset: 0x43B00, size: 0x8, addend: 0x0, symName: __ZN4User10deleteUserERNSt3__16vectorIS_NS0_9allocatorIS_EEEE, symObjAddr: 0xE78, symBinAddr: 0x10000F814, symSize: 0x10C }
  - { offsetInCU: 0x7800, offset: 0x43B32, size: 0x8, addend: 0x0, symName: __ZNSt3__16vectorI4UserNS_9allocatorIS1_EEE5eraseB7v160006ENS_11__wrap_iterIPKS1_EE, symObjAddr: 0xF84, symBinAddr: 0x10000F920, symSize: 0xAC }
  - { offsetInCU: 0x7853, offset: 0x43B85, size: 0x8, addend: 0x0, symName: __ZNSt3__16vectorI4UserNS_9allocatorIS1_EEE5beginB7v160006Ev, symObjAddr: 0x1030, symBinAddr: 0x10000F9CC, symSize: 0x30 }
  - { offsetInCU: 0x787A, offset: 0x43BAC, size: 0x8, addend: 0x0, symName: __ZNKSt3__111__wrap_iterIP4UserEplB7v160006El, symObjAddr: 0x1060, symBinAddr: 0x10000F9FC, symSize: 0x3C }
  - { offsetInCU: 0x78C5, offset: 0x43BF7, size: 0x8, addend: 0x0, symName: __ZNSt3__111__wrap_iterIPK4UserEC1B7v160006IPS1_EERKNS0_IT_EEPNS_9enable_ifIXsr14is_convertibleIS7_S3_EE5valueEvE4typeE, symObjAddr: 0x109C, symBinAddr: 0x10000FA38, symSize: 0x3C }
  - { offsetInCU: 0x7910, offset: 0x43C42, size: 0x8, addend: 0x0, symName: __ZNKSt3__111__wrap_iterIPK4UserE4baseB7v160006Ev, symObjAddr: 0x1120, symBinAddr: 0x10000FABC, symSize: 0x18 }
  - { offsetInCU: 0x7935, offset: 0x43C67, size: 0x8, addend: 0x0, symName: __ZNKSt3__16vectorI4UserNS_9allocatorIS1_EEE11__make_iterB7v160006EPKS1_, symObjAddr: 0x1DF4, symBinAddr: 0x10000FAD4, symSize: 0x34 }
  - { offsetInCU: 0x7969, offset: 0x43C9B, size: 0x8, addend: 0x0, symName: __ZNSt3__111__wrap_iterIPK4UserEC1B7v160006EPKvS3_, symObjAddr: 0x1E28, symBinAddr: 0x10000FB08, symSize: 0x3C }
  - { offsetInCU: 0x79AE, offset: 0x43CE0, size: 0x8, addend: 0x0, symName: __ZNSt3__111__wrap_iterIPK4UserEC2B7v160006EPKvS3_, symObjAddr: 0x1E64, symBinAddr: 0x10000FB44, symSize: 0x24 }
  - { offsetInCU: 0x79F3, offset: 0x43D25, size: 0x8, addend: 0x0, symName: __ZNSt3__16vectorI4UserNS_9allocatorIS1_EEE9__end_capB7v160006Ev, symObjAddr: 0x2508, symBinAddr: 0x10000FB68, symSize: 0x28 }
  - { offsetInCU: 0x7A1D, offset: 0x43D4F, size: 0x8, addend: 0x0, symName: __ZNSt3__16vectorI4UserNS_9allocatorIS1_EEE22__construct_one_at_endB7v160006IJS1_EEEvDpOT_, symObjAddr: 0x2530, symBinAddr: 0x10000FB90, symSize: 0x90 }
  - { offsetInCU: 0x7A6A, offset: 0x43D9C, size: 0x8, addend: 0x0, symName: __ZNSt3__16vectorI4UserNS_9allocatorIS1_EEE21__push_back_slow_pathIS1_EEvOT_, symObjAddr: 0x25C0, symBinAddr: 0x10000FC20, symSize: 0xD8 }
  - { offsetInCU: 0x7AC7, offset: 0x43DF9, size: 0x8, addend: 0x0, symName: __ZNSt3__117__compressed_pairIP4UserNS_9allocatorIS1_EEE5firstB7v160006Ev, symObjAddr: 0x2698, symBinAddr: 0x10000FCF8, symSize: 0x24 }
  - { offsetInCU: 0x7AEC, offset: 0x43E1E, size: 0x8, addend: 0x0, symName: __ZNSt3__122__compressed_pair_elemIP4UserLi0ELb0EE5__getB7v160006Ev, symObjAddr: 0x26BC, symBinAddr: 0x10000FD1C, symSize: 0x14 }
  - { offsetInCU: 0x7B2A, offset: 0x43E5C, size: 0x8, addend: 0x0, symName: __ZNSt3__16vectorI4UserNS_9allocatorIS1_EEE21_ConstructTransactionC1B7v160006ERS4_m, symObjAddr: 0x26D0, symBinAddr: 0x10000FD30, symSize: 0x3C }
  - { offsetInCU: 0x7B71, offset: 0x43EA3, size: 0x8, addend: 0x0, symName: __ZNSt3__116allocator_traitsINS_9allocatorI4UserEEE9constructB7v160006IS2_JS2_EvEEvRS3_PT_DpOT0_, symObjAddr: 0x270C, symBinAddr: 0x10000FD6C, symSize: 0x34 }
  - { offsetInCU: 0x7BC8, offset: 0x43EFA, size: 0x8, addend: 0x0, symName: __ZNSt3__16vectorI4UserNS_9allocatorIS1_EEE21_ConstructTransactionD1B7v160006Ev, symObjAddr: 0x277C, symBinAddr: 0x10000FDA0, symSize: 0x2C }
  - { offsetInCU: 0x7BF1, offset: 0x43F23, size: 0x8, addend: 0x0, symName: __ZNSt3__16vectorI4UserNS_9allocatorIS1_EEE21_ConstructTransactionC2B7v160006ERS4_m, symObjAddr: 0x27A8, symBinAddr: 0x10000FDCC, symSize: 0x4C }
  - { offsetInCU: 0x7C38, offset: 0x43F6A, size: 0x8, addend: 0x0, symName: __ZNSt3__19allocatorI4UserE9constructB7v160006IS1_JS1_EEEvPT_DpOT0_, symObjAddr: 0x27F4, symBinAddr: 0x10000FE18, symSize: 0x30 }
  - { offsetInCU: 0x7C8D, offset: 0x43FBF, size: 0x8, addend: 0x0, symName: __ZN4UserC1EOS_, symObjAddr: 0x2824, symBinAddr: 0x10000FE48, symSize: 0x34 }
  - { offsetInCU: 0x7CC1, offset: 0x43FF3, size: 0x8, addend: 0x0, symName: __ZN4UserC2EOS_, symObjAddr: 0x2858, symBinAddr: 0x10000FE7C, symSize: 0x98 }
  - { offsetInCU: 0x7CF5, offset: 0x44027, size: 0x8, addend: 0x0, symName: __ZNSt3__16vectorI4UserNS_9allocatorIS1_EEE21_ConstructTransactionD2B7v160006Ev, symObjAddr: 0x29F0, symBinAddr: 0x10000FF14, symSize: 0x20 }
  - { offsetInCU: 0x7D1D, offset: 0x4404F, size: 0x8, addend: 0x0, symName: __ZNKSt3__16vectorI4UserNS_9allocatorIS1_EEE11__recommendB7v160006Em, symObjAddr: 0x2A10, symBinAddr: 0x10000FF34, symSize: 0xB4 }
  - { offsetInCU: 0x7D71, offset: 0x440A3, size: 0x8, addend: 0x0, symName: __ZNSt3__114__split_bufferI4UserRNS_9allocatorIS1_EEEC1EmmS4_, symObjAddr: 0x2AC4, symBinAddr: 0x10000FFE8, symSize: 0x44 }
  - { offsetInCU: 0x7DC6, offset: 0x440F8, size: 0x8, addend: 0x0, symName: __ZNSt3__114__split_bufferI4UserRNS_9allocatorIS1_EEED1Ev, symObjAddr: 0x2C20, symBinAddr: 0x100010144, symSize: 0x2C }
  - { offsetInCU: 0x7DF0, offset: 0x44122, size: 0x8, addend: 0x0, symName: __ZNKSt3__16vectorI4UserNS_9allocatorIS1_EEE8max_sizeEv, symObjAddr: 0x2C4C, symBinAddr: 0x100010170, symSize: 0x60 }
  - { offsetInCU: 0x7E17, offset: 0x44149, size: 0x8, addend: 0x0, symName: __ZNKSt3__16vectorI4UserNS_9allocatorIS1_EEE20__throw_length_errorB7v160006Ev, symObjAddr: 0x2CAC, symBinAddr: 0x1000101D0, symSize: 0x1C }
  - { offsetInCU: 0x7E46, offset: 0x44178, size: 0x8, addend: 0x0, symName: __ZNSt3__116allocator_traitsINS_9allocatorI4UserEEE8max_sizeB7v160006IS3_vEEmRKS3_, symObjAddr: 0x2D60, symBinAddr: 0x1000101EC, symSize: 0x24 }
  - { offsetInCU: 0x7E74, offset: 0x441A6, size: 0x8, addend: 0x0, symName: __ZNKSt3__16vectorI4UserNS_9allocatorIS1_EEE7__allocB7v160006Ev, symObjAddr: 0x2D84, symBinAddr: 0x100010210, symSize: 0x28 }
  - { offsetInCU: 0x7E99, offset: 0x441CB, size: 0x8, addend: 0x0, symName: __ZNKSt3__19allocatorI4UserE8max_sizeB7v160006Ev, symObjAddr: 0x2E34, symBinAddr: 0x100010238, symSize: 0x20 }
  - { offsetInCU: 0x7EBE, offset: 0x441F0, size: 0x8, addend: 0x0, symName: __ZNKSt3__117__compressed_pairIP4UserNS_9allocatorIS1_EEE6secondB7v160006Ev, symObjAddr: 0x2E54, symBinAddr: 0x100010258, symSize: 0x24 }
  - { offsetInCU: 0x7EE3, offset: 0x44215, size: 0x8, addend: 0x0, symName: __ZNKSt3__122__compressed_pair_elemINS_9allocatorI4UserEELi1ELb1EE5__getB7v160006Ev, symObjAddr: 0x2E78, symBinAddr: 0x10001027C, symSize: 0x14 }
  - { offsetInCU: 0x7F08, offset: 0x4423A, size: 0x8, addend: 0x0, symName: __ZNSt3__114__split_bufferI4UserRNS_9allocatorIS1_EEEC2EmmS4_, symObjAddr: 0x3024, symBinAddr: 0x100010290, symSize: 0xE0 }
  - { offsetInCU: 0x7F80, offset: 0x442B2, size: 0x8, addend: 0x0, symName: __ZNSt3__117__compressed_pairIP4UserRNS_9allocatorIS1_EEEC1B7v160006IDnS5_EEOT_OT0_, symObjAddr: 0x3104, symBinAddr: 0x100010370, symSize: 0x3C }
  - { offsetInCU: 0x7FD7, offset: 0x44309, size: 0x8, addend: 0x0, symName: __ZNSt3__114__split_bufferI4UserRNS_9allocatorIS1_EEE7__allocB7v160006Ev, symObjAddr: 0x3180, symBinAddr: 0x1000103EC, symSize: 0x28 }
  - { offsetInCU: 0x7FFC, offset: 0x4432E, size: 0x8, addend: 0x0, symName: __ZNSt3__114__split_bufferI4UserRNS_9allocatorIS1_EEE9__end_capB7v160006Ev, symObjAddr: 0x31A8, symBinAddr: 0x100010414, symSize: 0x28 }
  - { offsetInCU: 0x8021, offset: 0x44353, size: 0x8, addend: 0x0, symName: __ZNSt3__117__compressed_pairIP4UserRNS_9allocatorIS1_EEEC2B7v160006IDnS5_EEOT_OT0_, symObjAddr: 0x31D0, symBinAddr: 0x10001043C, symSize: 0x48 }
  - { offsetInCU: 0x8078, offset: 0x443AA, size: 0x8, addend: 0x0, symName: __ZNSt3__122__compressed_pair_elemIRNS_9allocatorI4UserEELi1ELb0EEC2B7v160006IS4_vEEOT_, symObjAddr: 0x3234, symBinAddr: 0x100010484, symSize: 0x20 }
  - { offsetInCU: 0x80B9, offset: 0x443EB, size: 0x8, addend: 0x0, symName: __ZNSt3__19allocatorI4UserE8allocateB7v160006Em, symObjAddr: 0x3254, symBinAddr: 0x1000104A4, symSize: 0x5C }
  - { offsetInCU: 0x80EC, offset: 0x4441E, size: 0x8, addend: 0x0, symName: __ZNSt3__117__compressed_pairIP4UserRNS_9allocatorIS1_EEE6secondB7v160006Ev, symObjAddr: 0x3330, symBinAddr: 0x100010500, symSize: 0x28 }
  - { offsetInCU: 0x8111, offset: 0x44443, size: 0x8, addend: 0x0, symName: __ZNSt3__122__compressed_pair_elemIRNS_9allocatorI4UserEELi1ELb0EE5__getB7v160006Ev, symObjAddr: 0x3358, symBinAddr: 0x100010528, symSize: 0x18 }
  - { offsetInCU: 0x8136, offset: 0x44468, size: 0x8, addend: 0x0, symName: __ZNSt3__117__compressed_pairIP4UserRNS_9allocatorIS1_EEE5firstB7v160006Ev, symObjAddr: 0x3370, symBinAddr: 0x100010540, symSize: 0x24 }
  - { offsetInCU: 0x815B, offset: 0x4448D, size: 0x8, addend: 0x0, symName: __ZNSt3__116reverse_iteratorIP4UserEC1B7v160006ES2_, symObjAddr: 0x3594, symBinAddr: 0x100010690, symSize: 0x34 }
  - { offsetInCU: 0x8192, offset: 0x444C4, size: 0x8, addend: 0x0, symName: __ZNKSt3__116reverse_iteratorIP4UserE4baseB7v160006Ev, symObjAddr: 0x35C8, symBinAddr: 0x1000106C4, symSize: 0x18 }
  - { offsetInCU: 0x81B7, offset: 0x444E9, size: 0x8, addend: 0x0, symName: __ZNKSt3__16vectorI4UserNS_9allocatorIS1_EEE14__annotate_newB7v160006Em, symObjAddr: 0x361C, symBinAddr: 0x100010718, symSize: 0xC8 }
  - { offsetInCU: 0x81EB, offset: 0x4451D, size: 0x8, addend: 0x0, symName: __ZNSt3__129_AllocatorDestroyRangeReverseINS_9allocatorI4UserEENS_16reverse_iteratorIPS2_EEEC1B7v160006ERS3_RS6_S9_, symObjAddr: 0x3788, symBinAddr: 0x10001083C, symSize: 0x44 }
  - { offsetInCU: 0x8241, offset: 0x44573, size: 0x8, addend: 0x0, symName: __ZNKSt3__116reverse_iteratorIP4UserEdeB7v160006Ev, symObjAddr: 0x3838, symBinAddr: 0x1000108EC, symSize: 0x28 }
  - { offsetInCU: 0x8274, offset: 0x445A6, size: 0x8, addend: 0x0, symName: __ZNSt3__116reverse_iteratorIP4UserEppB7v160006Ev, symObjAddr: 0x3860, symBinAddr: 0x100010914, symSize: 0x20 }
  - { offsetInCU: 0x8299, offset: 0x445CB, size: 0x8, addend: 0x0, symName: __ZNSt3__128__exception_guard_exceptionsINS_29_AllocatorDestroyRangeReverseINS_9allocatorI4UserEENS_16reverse_iteratorIPS3_EEEEE10__completeB7v160006Ev, symObjAddr: 0x3880, symBinAddr: 0x100010934, symSize: 0x1C }
  - { offsetInCU: 0x82BE, offset: 0x445F0, size: 0x8, addend: 0x0, symName: __ZNSt3__128__exception_guard_exceptionsINS_29_AllocatorDestroyRangeReverseINS_9allocatorI4UserEENS_16reverse_iteratorIPS3_EEEEED1B7v160006Ev, symObjAddr: 0x389C, symBinAddr: 0x100010950, symSize: 0x2C }
  - { offsetInCU: 0x82E7, offset: 0x44619, size: 0x8, addend: 0x0, symName: __ZNSt3__128__exception_guard_exceptionsINS_29_AllocatorDestroyRangeReverseINS_9allocatorI4UserEENS_16reverse_iteratorIPS3_EEEEEC1B7v160006ES8_, symObjAddr: 0x38C8, symBinAddr: 0x10001097C, symSize: 0x34 }
  - { offsetInCU: 0x831F, offset: 0x44651, size: 0x8, addend: 0x0, symName: __ZNSt3__128__exception_guard_exceptionsINS_29_AllocatorDestroyRangeReverseINS_9allocatorI4UserEENS_16reverse_iteratorIPS3_EEEEEC2B7v160006ES8_, symObjAddr: 0x38FC, symBinAddr: 0x1000109B0, symSize: 0x30 }
  - { offsetInCU: 0x8357, offset: 0x44689, size: 0x8, addend: 0x0, symName: __ZNSt3__129_AllocatorDestroyRangeReverseINS_9allocatorI4UserEENS_16reverse_iteratorIPS2_EEEC2B7v160006ERS3_RS6_S9_, symObjAddr: 0x392C, symBinAddr: 0x1000109E0, symSize: 0x38 }
  - { offsetInCU: 0x83B2, offset: 0x446E4, size: 0x8, addend: 0x0, symName: __ZNSt3__119__to_address_helperINS_16reverse_iteratorIP4UserEEvE6__callB7v160006ERKS4_, symObjAddr: 0x3964, symBinAddr: 0x100010A18, symSize: 0x38 }
  - { offsetInCU: 0x83D5, offset: 0x44707, size: 0x8, addend: 0x0, symName: __ZNKSt3__116reverse_iteratorIP4UserEptB7v160006Ev, symObjAddr: 0x399C, symBinAddr: 0x100010A50, symSize: 0x24 }
  - { offsetInCU: 0x83FA, offset: 0x4472C, size: 0x8, addend: 0x0, symName: __ZNSt3__128__exception_guard_exceptionsINS_29_AllocatorDestroyRangeReverseINS_9allocatorI4UserEENS_16reverse_iteratorIPS3_EEEEED2B7v160006Ev, symObjAddr: 0x39C0, symBinAddr: 0x100010A74, symSize: 0x50 }
  - { offsetInCU: 0x8423, offset: 0x44755, size: 0x8, addend: 0x0, symName: __ZNKSt3__129_AllocatorDestroyRangeReverseINS_9allocatorI4UserEENS_16reverse_iteratorIPS2_EEEclB7v160006Ev, symObjAddr: 0x3A10, symBinAddr: 0x100010AC4, symSize: 0xB4 }
  - { offsetInCU: 0x8449, offset: 0x4477B, size: 0x8, addend: 0x0, symName: __ZNSt3__116reverse_iteratorINS0_IP4UserEEEC1B7v160006ES3_, symObjAddr: 0x3B34, symBinAddr: 0x100010BE8, symSize: 0x3C }
  - { offsetInCU: 0x8480, offset: 0x447B2, size: 0x8, addend: 0x0, symName: __ZNSt3__116reverse_iteratorINS0_IP4UserEEEppB7v160006Ev, symObjAddr: 0x3C20, symBinAddr: 0x100010CA8, symSize: 0x30 }
  - { offsetInCU: 0x84A5, offset: 0x447D7, size: 0x8, addend: 0x0, symName: __ZNKSt3__116reverse_iteratorINS0_IP4UserEEE4baseB7v160006Ev, symObjAddr: 0x3C50, symBinAddr: 0x100010CD8, symSize: 0x24 }
  - { offsetInCU: 0x84CF, offset: 0x44801, size: 0x8, addend: 0x0, symName: __ZNSt3__119__to_address_helperINS_16reverse_iteratorINS1_IP4UserEEEEvE6__callB7v160006ERKS5_, symObjAddr: 0x3C9C, symBinAddr: 0x100010CFC, symSize: 0x38 }
  - { offsetInCU: 0x84F2, offset: 0x44824, size: 0x8, addend: 0x0, symName: __ZNKSt3__116reverse_iteratorINS0_IP4UserEEEptB7v160006Ev, symObjAddr: 0x3CD4, symBinAddr: 0x100010D34, symSize: 0x24 }
  - { offsetInCU: 0x8517, offset: 0x44849, size: 0x8, addend: 0x0, symName: __ZNKSt3__116reverse_iteratorINS0_IP4UserEEEdeB7v160006Ev, symObjAddr: 0x3CF8, symBinAddr: 0x100010D58, symSize: 0x34 }
  - { offsetInCU: 0x854A, offset: 0x4487C, size: 0x8, addend: 0x0, symName: __ZNSt3__116reverse_iteratorIP4UserEmmB7v160006Ev, symObjAddr: 0x3D2C, symBinAddr: 0x100010D8C, symSize: 0x20 }
  - { offsetInCU: 0x856F, offset: 0x448A1, size: 0x8, addend: 0x0, symName: __ZNSt3__116reverse_iteratorINS0_IP4UserEEEC2B7v160006ES3_, symObjAddr: 0x3D4C, symBinAddr: 0x100010DAC, symSize: 0x2C }
  - { offsetInCU: 0x85A6, offset: 0x448D8, size: 0x8, addend: 0x0, symName: __ZNSt3__116reverse_iteratorIP4UserEC2B7v160006ES2_, symObjAddr: 0x3D78, symBinAddr: 0x100010DD8, symSize: 0x28 }
  - { offsetInCU: 0x85DD, offset: 0x4490F, size: 0x8, addend: 0x0, symName: __ZNSt3__114__split_bufferI4UserRNS_9allocatorIS1_EEED2Ev, symObjAddr: 0x3DA0, symBinAddr: 0x100010E00, symSize: 0x8C }
  - { offsetInCU: 0x8608, offset: 0x4493A, size: 0x8, addend: 0x0, symName: __ZNSt3__114__split_bufferI4UserRNS_9allocatorIS1_EEE5clearB7v160006Ev, symObjAddr: 0x3E2C, symBinAddr: 0x100010E8C, symSize: 0x28 }
  - { offsetInCU: 0x862D, offset: 0x4495F, size: 0x8, addend: 0x0, symName: __ZNKSt3__114__split_bufferI4UserRNS_9allocatorIS1_EEE8capacityB7v160006Ev, symObjAddr: 0x3E88, symBinAddr: 0x100010EB4, symSize: 0x40 }
  - { offsetInCU: 0x8652, offset: 0x44984, size: 0x8, addend: 0x0, symName: __ZNSt3__114__split_bufferI4UserRNS_9allocatorIS1_EEE17__destruct_at_endB7v160006EPS1_, symObjAddr: 0x3EC8, symBinAddr: 0x100010EF4, symSize: 0x2C }
  - { offsetInCU: 0x8684, offset: 0x449B6, size: 0x8, addend: 0x0, symName: __ZNSt3__114__split_bufferI4UserRNS_9allocatorIS1_EEE17__destruct_at_endB7v160006EPS1_NS_17integral_constantIbLb0EEE, symObjAddr: 0x3EF4, symBinAddr: 0x100010F20, symSize: 0x80 }
  - { offsetInCU: 0x86C4, offset: 0x449F6, size: 0x8, addend: 0x0, symName: __ZNKSt3__114__split_bufferI4UserRNS_9allocatorIS1_EEE9__end_capB7v160006Ev, symObjAddr: 0x4034, symBinAddr: 0x100010FA0, symSize: 0x28 }
  - { offsetInCU: 0x86E9, offset: 0x44A1B, size: 0x8, addend: 0x0, symName: __ZNKSt3__117__compressed_pairIP4UserRNS_9allocatorIS1_EEE5firstB7v160006Ev, symObjAddr: 0x405C, symBinAddr: 0x100010FC8, symSize: 0x24 }
  - { offsetInCU: 0x870E, offset: 0x44A40, size: 0x8, addend: 0x0, symName: __ZNSt3__16vectorI4UserNS_9allocatorIS1_EEE11__make_iterB7v160006EPS1_, symObjAddr: 0x4080, symBinAddr: 0x100010FEC, symSize: 0x34 }
  - { offsetInCU: 0x8742, offset: 0x44A74, size: 0x8, addend: 0x0, symName: __ZNSt3__111__wrap_iterIP4UserEC1B7v160006EPKvS2_, symObjAddr: 0x40B4, symBinAddr: 0x100011020, symSize: 0x3C }
  - { offsetInCU: 0x8787, offset: 0x44AB9, size: 0x8, addend: 0x0, symName: __ZNSt3__111__wrap_iterIP4UserEC2B7v160006EPKvS2_, symObjAddr: 0x40F0, symBinAddr: 0x10001105C, symSize: 0x24 }
  - { offsetInCU: 0x87CC, offset: 0x44AFE, size: 0x8, addend: 0x0, symName: __ZNSt3__111__wrap_iterIP4UserEpLB7v160006El, symObjAddr: 0x4114, symBinAddr: 0x100011080, symSize: 0x30 }
  - { offsetInCU: 0x87FF, offset: 0x44B31, size: 0x8, addend: 0x0, symName: __ZNKSt3__16vectorI4UserNS_9allocatorIS1_EEE6cbeginB7v160006Ev, symObjAddr: 0x418C, symBinAddr: 0x1000110F8, symSize: 0x2C }
  - { offsetInCU: 0x8824, offset: 0x44B56, size: 0x8, addend: 0x0, symName: __ZNSt3__16vectorI4UserNS_9allocatorIS1_EEE17__destruct_at_endB7v160006EPS1_, symObjAddr: 0x41B8, symBinAddr: 0x100011124, symSize: 0x60 }
  - { offsetInCU: 0x8867, offset: 0x44B99, size: 0x8, addend: 0x0, symName: __ZNSt3__16vectorI4UserNS_9allocatorIS1_EEE27__invalidate_iterators_pastB7v160006EPS1_, symObjAddr: 0x4258, symBinAddr: 0x1000111C4, symSize: 0x14 }
  - { offsetInCU: 0x889D, offset: 0x44BCF, size: 0x8, addend: 0x0, symName: __ZNKSt3__16vectorI4UserNS_9allocatorIS1_EEE17__annotate_shrinkB7v160006Em, symObjAddr: 0x42F8, symBinAddr: 0x1000111D8, symSize: 0xD0 }
  - { offsetInCU: 0x88F4, offset: 0x44C26, size: 0x8, addend: 0x0, symName: __ZNKSt3__111__move_loopINS_17_ClassicAlgPolicyEEclB7v160006IP4UserS5_S5_EENS_4pairIT_T1_EES7_T0_S8_, symObjAddr: 0x4564, symBinAddr: 0x100011444, symSize: 0x90 }
  - { offsetInCU: 0x895E, offset: 0x44C90, size: 0x8, addend: 0x0, symName: __ZNSt3__18_IterOpsINS_17_ClassicAlgPolicyEE11__iter_moveB7v160006IRP4UserEENS_9enable_ifIXsr12is_referenceIDTdeclsr3stdE7declvalIRT_EEEEE5valueEDTclsr3stdE4movedeclsr3stdE7declvalIS9_EEEEE4typeEOS8_, symObjAddr: 0x46B8, symBinAddr: 0x100011598, symSize: 0x28 }
  - { offsetInCU: 0x898A, offset: 0x44CBC, size: 0x8, addend: 0x0, symName: __ZN4UseraSEOS_, symObjAddr: 0x46E0, symBinAddr: 0x1000115C0, symSize: 0x98 }
  - { offsetInCU: 0x89BA, offset: 0x44CEC, size: 0x8, addend: 0x0, symName: __ZNSt3__18_IterOpsINS_17_ClassicAlgPolicyEE25__validate_iter_referenceB7v160006IRP4UserEEvv, symObjAddr: 0x4778, symBinAddr: 0x100011658, symSize: 0x4 }
  - { offsetInCU: 0x89D8, offset: 0x44D0A, size: 0x8, addend: 0x0, symName: __ZNSt3__118__unwrap_iter_implIP4UserLb1EE8__unwrapB7v160006ES2_, symObjAddr: 0x49DC, symBinAddr: 0x10001165C, symSize: 0x24 }
  - { offsetInCU: 0x8A00, offset: 0x44D32, size: 0x8, addend: 0x0, symName: __ZNSt3__14pairIP4UserS2_EC1B7v160006IS2_S2_LPv0EEEOT_OT0_, symObjAddr: 0x4A00, symBinAddr: 0x100011680, symSize: 0x3C }
  - { offsetInCU: 0x8A5D, offset: 0x44D8F, size: 0x8, addend: 0x0, symName: __ZNSt3__14pairIP4UserS2_EC2B7v160006IS2_S2_LPv0EEEOT_OT0_, symObjAddr: 0x4A3C, symBinAddr: 0x1000116BC, symSize: 0x34 }
  - { offsetInCU: 0x8ABA, offset: 0x44DEC, size: 0x8, addend: 0x0, symName: __ZNSt3__118__unwrap_iter_implIP4UserLb1EE8__rewrapB7v160006ES2_S2_, symObjAddr: 0x4A70, symBinAddr: 0x1000116F0, symSize: 0x58 }
  - { offsetInCU: 0x8AEB, offset: 0x44E1D, size: 0x8, addend: 0x0, symName: __ZNSt3__111__wrap_iterIPK4UserEC2B7v160006IPS1_EERKNS0_IT_EEPNS_9enable_ifIXsr14is_convertibleIS7_S3_EE5valueEvE4typeE, symObjAddr: 0x4AC8, symBinAddr: 0x100011748, symSize: 0x40 }
  - { offsetInCU: 0x8B36, offset: 0x44E68, size: 0x8, addend: 0x0, symName: __ZNKSt3__111__wrap_iterIP4UserE4baseB7v160006Ev, symObjAddr: 0x4B08, symBinAddr: 0x100011788, symSize: 0x18 }
...
